
kernel.bin:     file format elf32-i386


Disassembly of section .text:

00001000 <_start>:
    1000:	66 87 db             	xchg   %bx,%bx
    1003:	bc a0 ff 00 00       	mov    $0xffa0,%esp
    1008:	c7 05 24 a8 04 00 00 	movl   $0x0,0x4a824
    100f:	00 00 00 
    1012:	0f 01 05 2c a8 04 00 	sgdtl  0x4a82c
    1019:	e8 2a 04 00 00       	call   1448 <cstart>
    101e:	0f 01 15 2c a8 04 00 	lgdtl  0x4a82c
    1025:	0f 01 1d 80 08 01 00 	lidtl  0x10880
    102c:	ea 33 10 00 00 08 00 	ljmp   $0x8,$0x1033

00001033 <csinit>:
    1033:	31 c0                	xor    %eax,%eax
    1035:	66 b8 20 00          	mov    $0x20,%ax
    1039:	0f 00 d8             	ltr    %ax
    103c:	e9 9c 04 00 00       	jmp    14dd <kernel_main>
    1041:	90                   	nop
    1042:	90                   	nop
    1043:	90                   	nop
    1044:	90                   	nop
    1045:	90                   	nop
    1046:	90                   	nop
    1047:	90                   	nop
    1048:	90                   	nop
    1049:	90                   	nop
    104a:	90                   	nop
    104b:	90                   	nop
    104c:	90                   	nop
    104d:	90                   	nop
    104e:	90                   	nop
    104f:	90                   	nop

00001050 <hwint00>:
    1050:	e8 4c 03 00 00       	call   13a1 <save>
    1055:	e4 21                	in     $0x21,%al
    1057:	0c 01                	or     $0x1,%al
    1059:	e6 21                	out    %al,$0x21
    105b:	b0 20                	mov    $0x20,%al
    105d:	e6 20                	out    %al,$0x20
    105f:	fb                   	sti    
    1060:	6a 00                	push   $0x0
    1062:	ff 15 80 b2 04 00    	call   *0x4b280
    1068:	59                   	pop    %ecx
    1069:	fa                   	cli    
    106a:	e4 21                	in     $0x21,%al
    106c:	24 fe                	and    $0xfe,%al
    106e:	e6 21                	out    %al,$0x21
    1070:	c3                   	ret    
    1071:	90                   	nop
    1072:	90                   	nop
    1073:	90                   	nop
    1074:	90                   	nop
    1075:	90                   	nop
    1076:	90                   	nop
    1077:	90                   	nop
    1078:	90                   	nop
    1079:	90                   	nop
    107a:	90                   	nop
    107b:	90                   	nop
    107c:	90                   	nop
    107d:	90                   	nop
    107e:	90                   	nop
    107f:	90                   	nop

00001080 <hwint01>:
    1080:	e8 1c 03 00 00       	call   13a1 <save>
    1085:	e4 21                	in     $0x21,%al
    1087:	0c 02                	or     $0x2,%al
    1089:	e6 21                	out    %al,$0x21
    108b:	b0 20                	mov    $0x20,%al
    108d:	e6 20                	out    %al,$0x20
    108f:	fb                   	sti    
    1090:	6a 01                	push   $0x1
    1092:	ff 15 84 b2 04 00    	call   *0x4b284
    1098:	59                   	pop    %ecx
    1099:	fa                   	cli    
    109a:	e4 21                	in     $0x21,%al
    109c:	24 fd                	and    $0xfd,%al
    109e:	e6 21                	out    %al,$0x21
    10a0:	c3                   	ret    
    10a1:	90                   	nop
    10a2:	90                   	nop
    10a3:	90                   	nop
    10a4:	90                   	nop
    10a5:	90                   	nop
    10a6:	90                   	nop
    10a7:	90                   	nop
    10a8:	90                   	nop
    10a9:	90                   	nop
    10aa:	90                   	nop
    10ab:	90                   	nop
    10ac:	90                   	nop
    10ad:	90                   	nop
    10ae:	90                   	nop
    10af:	90                   	nop

000010b0 <hwint02>:
    10b0:	e8 ec 02 00 00       	call   13a1 <save>
    10b5:	e4 21                	in     $0x21,%al
    10b7:	0c 04                	or     $0x4,%al
    10b9:	e6 21                	out    %al,$0x21
    10bb:	b0 20                	mov    $0x20,%al
    10bd:	e6 20                	out    %al,$0x20
    10bf:	fb                   	sti    
    10c0:	6a 02                	push   $0x2
    10c2:	ff 15 88 b2 04 00    	call   *0x4b288
    10c8:	59                   	pop    %ecx
    10c9:	fa                   	cli    
    10ca:	e4 21                	in     $0x21,%al
    10cc:	24 fb                	and    $0xfb,%al
    10ce:	e6 21                	out    %al,$0x21
    10d0:	c3                   	ret    
    10d1:	90                   	nop
    10d2:	90                   	nop
    10d3:	90                   	nop
    10d4:	90                   	nop
    10d5:	90                   	nop
    10d6:	90                   	nop
    10d7:	90                   	nop
    10d8:	90                   	nop
    10d9:	90                   	nop
    10da:	90                   	nop
    10db:	90                   	nop
    10dc:	90                   	nop
    10dd:	90                   	nop
    10de:	90                   	nop
    10df:	90                   	nop

000010e0 <hwint03>:
    10e0:	e8 bc 02 00 00       	call   13a1 <save>
    10e5:	e4 21                	in     $0x21,%al
    10e7:	0c 08                	or     $0x8,%al
    10e9:	e6 21                	out    %al,$0x21
    10eb:	b0 20                	mov    $0x20,%al
    10ed:	e6 20                	out    %al,$0x20
    10ef:	fb                   	sti    
    10f0:	6a 03                	push   $0x3
    10f2:	ff 15 8c b2 04 00    	call   *0x4b28c
    10f8:	59                   	pop    %ecx
    10f9:	fa                   	cli    
    10fa:	e4 21                	in     $0x21,%al
    10fc:	24 f7                	and    $0xf7,%al
    10fe:	e6 21                	out    %al,$0x21
    1100:	c3                   	ret    
    1101:	90                   	nop
    1102:	90                   	nop
    1103:	90                   	nop
    1104:	90                   	nop
    1105:	90                   	nop
    1106:	90                   	nop
    1107:	90                   	nop
    1108:	90                   	nop
    1109:	90                   	nop
    110a:	90                   	nop
    110b:	90                   	nop
    110c:	90                   	nop
    110d:	90                   	nop
    110e:	90                   	nop
    110f:	90                   	nop

00001110 <hwint04>:
    1110:	e8 8c 02 00 00       	call   13a1 <save>
    1115:	e4 21                	in     $0x21,%al
    1117:	0c 10                	or     $0x10,%al
    1119:	e6 21                	out    %al,$0x21
    111b:	b0 20                	mov    $0x20,%al
    111d:	e6 20                	out    %al,$0x20
    111f:	fb                   	sti    
    1120:	6a 04                	push   $0x4
    1122:	ff 15 90 b2 04 00    	call   *0x4b290
    1128:	59                   	pop    %ecx
    1129:	fa                   	cli    
    112a:	e4 21                	in     $0x21,%al
    112c:	24 ef                	and    $0xef,%al
    112e:	e6 21                	out    %al,$0x21
    1130:	c3                   	ret    
    1131:	90                   	nop
    1132:	90                   	nop
    1133:	90                   	nop
    1134:	90                   	nop
    1135:	90                   	nop
    1136:	90                   	nop
    1137:	90                   	nop
    1138:	90                   	nop
    1139:	90                   	nop
    113a:	90                   	nop
    113b:	90                   	nop
    113c:	90                   	nop
    113d:	90                   	nop
    113e:	90                   	nop
    113f:	90                   	nop

00001140 <hwint05>:
    1140:	e8 5c 02 00 00       	call   13a1 <save>
    1145:	e4 21                	in     $0x21,%al
    1147:	0c 20                	or     $0x20,%al
    1149:	e6 21                	out    %al,$0x21
    114b:	b0 20                	mov    $0x20,%al
    114d:	e6 20                	out    %al,$0x20
    114f:	fb                   	sti    
    1150:	6a 05                	push   $0x5
    1152:	ff 15 94 b2 04 00    	call   *0x4b294
    1158:	59                   	pop    %ecx
    1159:	fa                   	cli    
    115a:	e4 21                	in     $0x21,%al
    115c:	24 df                	and    $0xdf,%al
    115e:	e6 21                	out    %al,$0x21
    1160:	c3                   	ret    
    1161:	90                   	nop
    1162:	90                   	nop
    1163:	90                   	nop
    1164:	90                   	nop
    1165:	90                   	nop
    1166:	90                   	nop
    1167:	90                   	nop
    1168:	90                   	nop
    1169:	90                   	nop
    116a:	90                   	nop
    116b:	90                   	nop
    116c:	90                   	nop
    116d:	90                   	nop
    116e:	90                   	nop
    116f:	90                   	nop

00001170 <hwint06>:
    1170:	e8 2c 02 00 00       	call   13a1 <save>
    1175:	e4 21                	in     $0x21,%al
    1177:	0c 40                	or     $0x40,%al
    1179:	e6 21                	out    %al,$0x21
    117b:	b0 20                	mov    $0x20,%al
    117d:	e6 20                	out    %al,$0x20
    117f:	fb                   	sti    
    1180:	6a 06                	push   $0x6
    1182:	ff 15 98 b2 04 00    	call   *0x4b298
    1188:	59                   	pop    %ecx
    1189:	fa                   	cli    
    118a:	e4 21                	in     $0x21,%al
    118c:	24 bf                	and    $0xbf,%al
    118e:	e6 21                	out    %al,$0x21
    1190:	c3                   	ret    
    1191:	90                   	nop
    1192:	90                   	nop
    1193:	90                   	nop
    1194:	90                   	nop
    1195:	90                   	nop
    1196:	90                   	nop
    1197:	90                   	nop
    1198:	90                   	nop
    1199:	90                   	nop
    119a:	90                   	nop
    119b:	90                   	nop
    119c:	90                   	nop
    119d:	90                   	nop
    119e:	90                   	nop
    119f:	90                   	nop

000011a0 <hwint07>:
    11a0:	e8 fc 01 00 00       	call   13a1 <save>
    11a5:	e4 21                	in     $0x21,%al
    11a7:	0c 80                	or     $0x80,%al
    11a9:	e6 21                	out    %al,$0x21
    11ab:	b0 20                	mov    $0x20,%al
    11ad:	e6 20                	out    %al,$0x20
    11af:	fb                   	sti    
    11b0:	6a 07                	push   $0x7
    11b2:	ff 15 9c b2 04 00    	call   *0x4b29c
    11b8:	59                   	pop    %ecx
    11b9:	fa                   	cli    
    11ba:	e4 21                	in     $0x21,%al
    11bc:	24 7f                	and    $0x7f,%al
    11be:	e6 21                	out    %al,$0x21
    11c0:	c3                   	ret    
    11c1:	90                   	nop
    11c2:	90                   	nop
    11c3:	90                   	nop
    11c4:	90                   	nop
    11c5:	90                   	nop
    11c6:	90                   	nop
    11c7:	90                   	nop
    11c8:	90                   	nop
    11c9:	90                   	nop
    11ca:	90                   	nop
    11cb:	90                   	nop
    11cc:	90                   	nop
    11cd:	90                   	nop
    11ce:	90                   	nop
    11cf:	90                   	nop

000011d0 <hwint08>:
    11d0:	e8 cc 01 00 00       	call   13a1 <save>
    11d5:	e4 a1                	in     $0xa1,%al
    11d7:	0c 01                	or     $0x1,%al
    11d9:	e6 a1                	out    %al,$0xa1
    11db:	b0 20                	mov    $0x20,%al
    11dd:	e6 20                	out    %al,$0x20
    11df:	90                   	nop
    11e0:	e6 a0                	out    %al,$0xa0
    11e2:	fb                   	sti    
    11e3:	6a 08                	push   $0x8
    11e5:	ff 15 a0 b2 04 00    	call   *0x4b2a0
    11eb:	59                   	pop    %ecx
    11ec:	fa                   	cli    
    11ed:	e4 a1                	in     $0xa1,%al
    11ef:	24 fe                	and    $0xfe,%al
    11f1:	e6 a1                	out    %al,$0xa1
    11f3:	c3                   	ret    
    11f4:	90                   	nop
    11f5:	90                   	nop
    11f6:	90                   	nop
    11f7:	90                   	nop
    11f8:	90                   	nop
    11f9:	90                   	nop
    11fa:	90                   	nop
    11fb:	90                   	nop
    11fc:	90                   	nop
    11fd:	90                   	nop
    11fe:	90                   	nop
    11ff:	90                   	nop

00001200 <hwint09>:
    1200:	e8 9c 01 00 00       	call   13a1 <save>
    1205:	e4 a1                	in     $0xa1,%al
    1207:	0c 02                	or     $0x2,%al
    1209:	e6 a1                	out    %al,$0xa1
    120b:	b0 20                	mov    $0x20,%al
    120d:	e6 20                	out    %al,$0x20
    120f:	90                   	nop
    1210:	e6 a0                	out    %al,$0xa0
    1212:	fb                   	sti    
    1213:	6a 09                	push   $0x9
    1215:	ff 15 a4 b2 04 00    	call   *0x4b2a4
    121b:	59                   	pop    %ecx
    121c:	fa                   	cli    
    121d:	e4 a1                	in     $0xa1,%al
    121f:	24 fd                	and    $0xfd,%al
    1221:	e6 a1                	out    %al,$0xa1
    1223:	c3                   	ret    
    1224:	90                   	nop
    1225:	90                   	nop
    1226:	90                   	nop
    1227:	90                   	nop
    1228:	90                   	nop
    1229:	90                   	nop
    122a:	90                   	nop
    122b:	90                   	nop
    122c:	90                   	nop
    122d:	90                   	nop
    122e:	90                   	nop
    122f:	90                   	nop

00001230 <hwint10>:
    1230:	e8 6c 01 00 00       	call   13a1 <save>
    1235:	e4 a1                	in     $0xa1,%al
    1237:	0c 04                	or     $0x4,%al
    1239:	e6 a1                	out    %al,$0xa1
    123b:	b0 20                	mov    $0x20,%al
    123d:	e6 20                	out    %al,$0x20
    123f:	90                   	nop
    1240:	e6 a0                	out    %al,$0xa0
    1242:	fb                   	sti    
    1243:	6a 0a                	push   $0xa
    1245:	ff 15 a8 b2 04 00    	call   *0x4b2a8
    124b:	59                   	pop    %ecx
    124c:	fa                   	cli    
    124d:	e4 a1                	in     $0xa1,%al
    124f:	24 fb                	and    $0xfb,%al
    1251:	e6 a1                	out    %al,$0xa1
    1253:	c3                   	ret    
    1254:	90                   	nop
    1255:	90                   	nop
    1256:	90                   	nop
    1257:	90                   	nop
    1258:	90                   	nop
    1259:	90                   	nop
    125a:	90                   	nop
    125b:	90                   	nop
    125c:	90                   	nop
    125d:	90                   	nop
    125e:	90                   	nop
    125f:	90                   	nop

00001260 <hwint11>:
    1260:	e8 3c 01 00 00       	call   13a1 <save>
    1265:	e4 a1                	in     $0xa1,%al
    1267:	0c 08                	or     $0x8,%al
    1269:	e6 a1                	out    %al,$0xa1
    126b:	b0 20                	mov    $0x20,%al
    126d:	e6 20                	out    %al,$0x20
    126f:	90                   	nop
    1270:	e6 a0                	out    %al,$0xa0
    1272:	fb                   	sti    
    1273:	6a 0b                	push   $0xb
    1275:	ff 15 ac b2 04 00    	call   *0x4b2ac
    127b:	59                   	pop    %ecx
    127c:	fa                   	cli    
    127d:	e4 a1                	in     $0xa1,%al
    127f:	24 f7                	and    $0xf7,%al
    1281:	e6 a1                	out    %al,$0xa1
    1283:	c3                   	ret    
    1284:	90                   	nop
    1285:	90                   	nop
    1286:	90                   	nop
    1287:	90                   	nop
    1288:	90                   	nop
    1289:	90                   	nop
    128a:	90                   	nop
    128b:	90                   	nop
    128c:	90                   	nop
    128d:	90                   	nop
    128e:	90                   	nop
    128f:	90                   	nop

00001290 <hwint12>:
    1290:	e8 0c 01 00 00       	call   13a1 <save>
    1295:	e4 a1                	in     $0xa1,%al
    1297:	0c 10                	or     $0x10,%al
    1299:	e6 a1                	out    %al,$0xa1
    129b:	b0 20                	mov    $0x20,%al
    129d:	e6 20                	out    %al,$0x20
    129f:	90                   	nop
    12a0:	e6 a0                	out    %al,$0xa0
    12a2:	fb                   	sti    
    12a3:	6a 0c                	push   $0xc
    12a5:	ff 15 b0 b2 04 00    	call   *0x4b2b0
    12ab:	59                   	pop    %ecx
    12ac:	fa                   	cli    
    12ad:	e4 a1                	in     $0xa1,%al
    12af:	24 ef                	and    $0xef,%al
    12b1:	e6 a1                	out    %al,$0xa1
    12b3:	c3                   	ret    
    12b4:	90                   	nop
    12b5:	90                   	nop
    12b6:	90                   	nop
    12b7:	90                   	nop
    12b8:	90                   	nop
    12b9:	90                   	nop
    12ba:	90                   	nop
    12bb:	90                   	nop
    12bc:	90                   	nop
    12bd:	90                   	nop
    12be:	90                   	nop
    12bf:	90                   	nop

000012c0 <hwint13>:
    12c0:	e8 dc 00 00 00       	call   13a1 <save>
    12c5:	e4 a1                	in     $0xa1,%al
    12c7:	0c 20                	or     $0x20,%al
    12c9:	e6 a1                	out    %al,$0xa1
    12cb:	b0 20                	mov    $0x20,%al
    12cd:	e6 20                	out    %al,$0x20
    12cf:	90                   	nop
    12d0:	e6 a0                	out    %al,$0xa0
    12d2:	fb                   	sti    
    12d3:	6a 0d                	push   $0xd
    12d5:	ff 15 b4 b2 04 00    	call   *0x4b2b4
    12db:	59                   	pop    %ecx
    12dc:	fa                   	cli    
    12dd:	e4 a1                	in     $0xa1,%al
    12df:	24 df                	and    $0xdf,%al
    12e1:	e6 a1                	out    %al,$0xa1
    12e3:	c3                   	ret    
    12e4:	90                   	nop
    12e5:	90                   	nop
    12e6:	90                   	nop
    12e7:	90                   	nop
    12e8:	90                   	nop
    12e9:	90                   	nop
    12ea:	90                   	nop
    12eb:	90                   	nop
    12ec:	90                   	nop
    12ed:	90                   	nop
    12ee:	90                   	nop
    12ef:	90                   	nop

000012f0 <hwint14>:
    12f0:	e8 ac 00 00 00       	call   13a1 <save>
    12f5:	e4 a1                	in     $0xa1,%al
    12f7:	0c 40                	or     $0x40,%al
    12f9:	e6 a1                	out    %al,$0xa1
    12fb:	b0 20                	mov    $0x20,%al
    12fd:	e6 20                	out    %al,$0x20
    12ff:	90                   	nop
    1300:	e6 a0                	out    %al,$0xa0
    1302:	fb                   	sti    
    1303:	6a 0e                	push   $0xe
    1305:	ff 15 b8 b2 04 00    	call   *0x4b2b8
    130b:	59                   	pop    %ecx
    130c:	fa                   	cli    
    130d:	e4 a1                	in     $0xa1,%al
    130f:	24 bf                	and    $0xbf,%al
    1311:	e6 a1                	out    %al,$0xa1
    1313:	c3                   	ret    
    1314:	90                   	nop
    1315:	90                   	nop
    1316:	90                   	nop
    1317:	90                   	nop
    1318:	90                   	nop
    1319:	90                   	nop
    131a:	90                   	nop
    131b:	90                   	nop
    131c:	90                   	nop
    131d:	90                   	nop
    131e:	90                   	nop
    131f:	90                   	nop

00001320 <hwint15>:
    1320:	e8 7c 00 00 00       	call   13a1 <save>
    1325:	e4 a1                	in     $0xa1,%al
    1327:	0c 80                	or     $0x80,%al
    1329:	e6 a1                	out    %al,$0xa1
    132b:	b0 20                	mov    $0x20,%al
    132d:	e6 20                	out    %al,$0x20
    132f:	90                   	nop
    1330:	e6 a0                	out    %al,$0xa0
    1332:	fb                   	sti    
    1333:	6a 0f                	push   $0xf
    1335:	ff 15 bc b2 04 00    	call   *0x4b2bc
    133b:	59                   	pop    %ecx
    133c:	fa                   	cli    
    133d:	e4 a1                	in     $0xa1,%al
    133f:	24 7f                	and    $0x7f,%al
    1341:	e6 a1                	out    %al,$0xa1
    1343:	c3                   	ret    

00001344 <divide_error>:
    1344:	6a ff                	push   $0xffffffff
    1346:	6a 00                	push   $0x0
    1348:	eb 4e                	jmp    1398 <exception>

0000134a <single_step_exception>:
    134a:	6a ff                	push   $0xffffffff
    134c:	6a 01                	push   $0x1
    134e:	eb 48                	jmp    1398 <exception>

00001350 <nmi>:
    1350:	6a ff                	push   $0xffffffff
    1352:	6a 02                	push   $0x2
    1354:	eb 42                	jmp    1398 <exception>

00001356 <breakpoint_exception>:
    1356:	6a ff                	push   $0xffffffff
    1358:	6a 03                	push   $0x3
    135a:	eb 3c                	jmp    1398 <exception>

0000135c <overflow>:
    135c:	6a ff                	push   $0xffffffff
    135e:	6a 04                	push   $0x4
    1360:	eb 36                	jmp    1398 <exception>

00001362 <bounds_check>:
    1362:	6a ff                	push   $0xffffffff
    1364:	6a 05                	push   $0x5
    1366:	eb 30                	jmp    1398 <exception>

00001368 <inval_opcode>:
    1368:	6a ff                	push   $0xffffffff
    136a:	6a 06                	push   $0x6
    136c:	eb 2a                	jmp    1398 <exception>

0000136e <copr_not_available>:
    136e:	6a ff                	push   $0xffffffff
    1370:	6a 07                	push   $0x7
    1372:	eb 24                	jmp    1398 <exception>

00001374 <double_fault>:
    1374:	6a 08                	push   $0x8
    1376:	eb 20                	jmp    1398 <exception>

00001378 <copr_seg_overrun>:
    1378:	6a ff                	push   $0xffffffff
    137a:	6a 09                	push   $0x9
    137c:	eb 1a                	jmp    1398 <exception>

0000137e <inval_tss>:
    137e:	6a 0a                	push   $0xa
    1380:	eb 16                	jmp    1398 <exception>

00001382 <segment_not_present>:
    1382:	6a 0b                	push   $0xb
    1384:	eb 12                	jmp    1398 <exception>

00001386 <stack_exception>:
    1386:	6a 0c                	push   $0xc
    1388:	eb 0e                	jmp    1398 <exception>

0000138a <general_protection>:
    138a:	6a 0d                	push   $0xd
    138c:	eb 0a                	jmp    1398 <exception>

0000138e <page_fault>:
    138e:	6a 0e                	push   $0xe
    1390:	eb 06                	jmp    1398 <exception>

00001392 <copr_error>:
    1392:	6a ff                	push   $0xffffffff
    1394:	6a 10                	push   $0x10
    1396:	eb 00                	jmp    1398 <exception>

00001398 <exception>:
    1398:	e8 ed 27 00 00       	call   3b8a <exception_handler>
    139d:	83 c4 08             	add    $0x8,%esp
    13a0:	f4                   	hlt    

000013a1 <save>:
    13a1:	60                   	pusha  
    13a2:	1e                   	push   %ds
    13a3:	06                   	push   %es
    13a4:	0f a0                	push   %fs
    13a6:	0f a8                	push   %gs
    13a8:	89 d6                	mov    %edx,%esi
    13aa:	66 8c d2             	mov    %ss,%dx
    13ad:	8e da                	mov    %edx,%ds
    13af:	8e c2                	mov    %edx,%es
    13b1:	8e e2                	mov    %edx,%fs
    13b3:	89 f2                	mov    %esi,%edx
    13b5:	89 e6                	mov    %esp,%esi
    13b7:	ff 05 a0 93 04 00    	incl   0x493a0
    13bd:	83 3d a0 93 04 00 00 	cmpl   $0x0,0x493a0
    13c4:	75 0d                	jne    13d3 <save.1>
    13c6:	bc a0 ff 00 00       	mov    $0xffa0,%esp
    13cb:	68 fb 13 00 00       	push   $0x13fb
    13d0:	ff 66 30             	jmp    *0x30(%esi)

000013d3 <save.1>:
    13d3:	68 0f 14 00 00       	push   $0x140f
    13d8:	ff 66 30             	jmp    *0x30(%esi)

000013db <sys_call>:
    13db:	e8 c1 ff ff ff       	call   13a1 <save>
    13e0:	fb                   	sti    
    13e1:	56                   	push   %esi
    13e2:	ff 35 c0 b2 04 00    	pushl  0x4b2c0
    13e8:	52                   	push   %edx
    13e9:	51                   	push   %ecx
    13ea:	53                   	push   %ebx
    13eb:	ff 14 85 78 f7 00 00 	call   *0xf778(,%eax,4)
    13f2:	83 c4 10             	add    $0x10,%esp
    13f5:	5e                   	pop    %esi
    13f6:	89 46 2c             	mov    %eax,0x2c(%esi)
    13f9:	fa                   	cli    
    13fa:	c3                   	ret    

000013fb <restart>:
    13fb:	8b 25 c0 b2 04 00    	mov    0x4b2c0,%esp
    1401:	0f 00 54 24 48       	lldt   0x48(%esp)
    1406:	8d 44 24 48          	lea    0x48(%esp),%eax
    140a:	a3 64 a4 04 00       	mov    %eax,0x4a464

0000140f <restart_reenter>:
    140f:	ff 0d a0 93 04 00    	decl   0x493a0
    1415:	0f a9                	pop    %gs
    1417:	0f a1                	pop    %fs
    1419:	07                   	pop    %es
    141a:	1f                   	pop    %ds
    141b:	61                   	popa   
    141c:	83 c4 04             	add    $0x4,%esp
    141f:	cf                   	iret   

00001420 <sendrec>:
    1420:	53                   	push   %ebx
    1421:	51                   	push   %ecx
    1422:	52                   	push   %edx
    1423:	b8 01 00 00 00       	mov    $0x1,%eax
    1428:	8b 5c 24 10          	mov    0x10(%esp),%ebx
    142c:	8b 4c 24 14          	mov    0x14(%esp),%ecx
    1430:	8b 54 24 18          	mov    0x18(%esp),%edx
    1434:	cd 90                	int    $0x90
    1436:	5a                   	pop    %edx
    1437:	59                   	pop    %ecx
    1438:	5b                   	pop    %ebx
    1439:	c3                   	ret    

0000143a <printx>:
    143a:	52                   	push   %edx
    143b:	b8 00 00 00 00       	mov    $0x0,%eax
    1440:	8b 54 24 08          	mov    0x8(%esp),%edx
    1444:	cd 90                	int    $0x90
    1446:	5a                   	pop    %edx
    1447:	c3                   	ret    

00001448 <cstart>:
    1448:	55                   	push   %ebp
    1449:	89 e5                	mov    %esp,%ebp
    144b:	83 ec 18             	sub    $0x18,%esp
    144e:	83 ec 0c             	sub    $0xc,%esp
    1451:	68 a0 a7 00 00       	push   $0xa7a0
    1456:	e8 c5 51 00 00       	call   6620 <disp_str>
    145b:	83 c4 10             	add    $0x10,%esp
    145e:	b8 2c a8 04 00       	mov    $0x4a82c,%eax
    1463:	0f b7 00             	movzwl (%eax),%eax
    1466:	0f b7 c0             	movzwl %ax,%eax
    1469:	83 c0 01             	add    $0x1,%eax
    146c:	ba 2e a8 04 00       	mov    $0x4a82e,%edx
    1471:	8b 12                	mov    (%edx),%edx
    1473:	83 ec 04             	sub    $0x4,%esp
    1476:	50                   	push   %eax
    1477:	52                   	push   %edx
    1478:	68 c0 93 04 00       	push   $0x493c0
    147d:	e8 5e 54 00 00       	call   68e0 <memcpy>
    1482:	83 c4 10             	add    $0x10,%esp
    1485:	c7 45 f4 2c a8 04 00 	movl   $0x4a82c,-0xc(%ebp)
    148c:	c7 45 f0 2e a8 04 00 	movl   $0x4a82e,-0x10(%ebp)
    1493:	8b 45 f4             	mov    -0xc(%ebp),%eax
    1496:	66 c7 00 ff 03       	movw   $0x3ff,(%eax)
    149b:	ba c0 93 04 00       	mov    $0x493c0,%edx
    14a0:	8b 45 f0             	mov    -0x10(%ebp),%eax
    14a3:	89 10                	mov    %edx,(%eax)
    14a5:	c7 45 ec 80 08 01 00 	movl   $0x10880,-0x14(%ebp)
    14ac:	c7 45 e8 82 08 01 00 	movl   $0x10882,-0x18(%ebp)
    14b3:	8b 45 ec             	mov    -0x14(%ebp),%eax
    14b6:	66 c7 00 ff 07       	movw   $0x7ff,(%eax)
    14bb:	ba 40 a8 04 00       	mov    $0x4a840,%edx
    14c0:	8b 45 e8             	mov    -0x18(%ebp),%eax
    14c3:	89 10                	mov    %edx,(%eax)
    14c5:	e8 e7 21 00 00       	call   36b1 <init_prot>
    14ca:	83 ec 0c             	sub    $0xc,%esp
    14cd:	68 ca a7 00 00       	push   $0xa7ca
    14d2:	e8 49 51 00 00       	call   6620 <disp_str>
    14d7:	83 c4 10             	add    $0x10,%esp
    14da:	90                   	nop
    14db:	c9                   	leave  
    14dc:	c3                   	ret    

000014dd <kernel_main>:
    14dd:	55                   	push   %ebp
    14de:	89 e5                	mov    %esp,%ebp
    14e0:	83 ec 28             	sub    $0x28,%esp
    14e3:	83 ec 0c             	sub    $0xc,%esp
    14e6:	68 e8 a7 00 00       	push   $0xa7e8
    14eb:	e8 30 51 00 00       	call   6620 <disp_str>
    14f0:	83 c4 10             	add    $0x10,%esp
    14f3:	c7 45 f0 e0 b2 04 00 	movl   $0x4b2e0,-0x10(%ebp)
    14fa:	c7 45 ec a0 93 04 00 	movl   $0x493a0,-0x14(%ebp)
    1501:	66 c7 45 ea 28 00    	movw   $0x28,-0x16(%ebp)
    1507:	c7 45 e0 00 00 00 00 	movl   $0x0,-0x20(%ebp)
    150e:	e9 11 02 00 00       	jmp    1724 <kernel_main+0x247>
    1513:	83 7d e0 03          	cmpl   $0x3,-0x20(%ebp)
    1517:	7f 2d                	jg     1546 <kernel_main+0x69>
    1519:	8b 55 e0             	mov    -0x20(%ebp),%edx
    151c:	89 d0                	mov    %edx,%eax
    151e:	c1 e0 02             	shl    $0x2,%eax
    1521:	01 d0                	add    %edx,%eax
    1523:	c1 e0 03             	shl    $0x3,%eax
    1526:	05 60 f6 00 00       	add    $0xf660,%eax
    152b:	89 45 f4             	mov    %eax,-0xc(%ebp)
    152e:	c6 45 e9 01          	movb   $0x1,-0x17(%ebp)
    1532:	c6 45 e8 01          	movb   $0x1,-0x18(%ebp)
    1536:	c7 45 e4 02 12 00 00 	movl   $0x1202,-0x1c(%ebp)
    153d:	c7 45 d8 0f 00 00 00 	movl   $0xf,-0x28(%ebp)
    1544:	eb 30                	jmp    1576 <kernel_main+0x99>
    1546:	8b 55 e0             	mov    -0x20(%ebp),%edx
    1549:	89 d0                	mov    %edx,%eax
    154b:	c1 e0 02             	shl    $0x2,%eax
    154e:	01 d0                	add    %edx,%eax
    1550:	c1 e0 03             	shl    $0x3,%eax
    1553:	2d a0 00 00 00       	sub    $0xa0,%eax
    1558:	05 00 f7 00 00       	add    $0xf700,%eax
    155d:	89 45 f4             	mov    %eax,-0xc(%ebp)
    1560:	c6 45 e9 03          	movb   $0x3,-0x17(%ebp)
    1564:	c6 45 e8 03          	movb   $0x3,-0x18(%ebp)
    1568:	c7 45 e4 02 02 00 00 	movl   $0x202,-0x1c(%ebp)
    156f:	c7 45 d8 05 00 00 00 	movl   $0x5,-0x28(%ebp)
    1576:	8b 45 f4             	mov    -0xc(%ebp),%eax
    1579:	8d 50 08             	lea    0x8(%eax),%edx
    157c:	8b 45 f0             	mov    -0x10(%ebp),%eax
    157f:	83 c0 68             	add    $0x68,%eax
    1582:	83 ec 08             	sub    $0x8,%esp
    1585:	52                   	push   %edx
    1586:	50                   	push   %eax
    1587:	e8 9e 53 00 00       	call   692a <strcpy>
    158c:	83 c4 10             	add    $0x10,%esp
    158f:	8b 55 e0             	mov    -0x20(%ebp),%edx
    1592:	8b 45 f0             	mov    -0x10(%ebp),%eax
    1595:	89 50 64             	mov    %edx,0x64(%eax)
    1598:	8b 45 f0             	mov    -0x10(%ebp),%eax
    159b:	0f b7 55 ea          	movzwl -0x16(%ebp),%edx
    159f:	66 89 50 48          	mov    %dx,0x48(%eax)
    15a3:	8b 45 f0             	mov    -0x10(%ebp),%eax
    15a6:	83 c0 4a             	add    $0x4a,%eax
    15a9:	83 ec 04             	sub    $0x4,%esp
    15ac:	6a 08                	push   $0x8
    15ae:	68 c8 93 04 00       	push   $0x493c8
    15b3:	50                   	push   %eax
    15b4:	e8 27 53 00 00       	call   68e0 <memcpy>
    15b9:	83 c4 10             	add    $0x10,%esp
    15bc:	0f b6 45 e9          	movzbl -0x17(%ebp),%eax
    15c0:	c1 e0 05             	shl    $0x5,%eax
    15c3:	83 c8 98             	or     $0xffffff98,%eax
    15c6:	89 c2                	mov    %eax,%edx
    15c8:	8b 45 f0             	mov    -0x10(%ebp),%eax
    15cb:	88 50 4f             	mov    %dl,0x4f(%eax)
    15ce:	8b 45 f0             	mov    -0x10(%ebp),%eax
    15d1:	83 c0 52             	add    $0x52,%eax
    15d4:	83 ec 04             	sub    $0x4,%esp
    15d7:	6a 08                	push   $0x8
    15d9:	68 d0 93 04 00       	push   $0x493d0
    15de:	50                   	push   %eax
    15df:	e8 fc 52 00 00       	call   68e0 <memcpy>
    15e4:	83 c4 10             	add    $0x10,%esp
    15e7:	0f b6 45 e9          	movzbl -0x17(%ebp),%eax
    15eb:	c1 e0 05             	shl    $0x5,%eax
    15ee:	83 c8 92             	or     $0xffffff92,%eax
    15f1:	89 c2                	mov    %eax,%edx
    15f3:	8b 45 f0             	mov    -0x10(%ebp),%eax
    15f6:	88 50 57             	mov    %dl,0x57(%eax)
    15f9:	0f b6 45 e8          	movzbl -0x18(%ebp),%eax
    15fd:	83 c8 04             	or     $0x4,%eax
    1600:	0f b6 d0             	movzbl %al,%edx
    1603:	8b 45 f0             	mov    -0x10(%ebp),%eax
    1606:	89 50 38             	mov    %edx,0x38(%eax)
    1609:	0f b6 45 e8          	movzbl -0x18(%ebp),%eax
    160d:	83 c8 0c             	or     $0xc,%eax
    1610:	0f b6 d0             	movzbl %al,%edx
    1613:	8b 45 f0             	mov    -0x10(%ebp),%eax
    1616:	89 50 0c             	mov    %edx,0xc(%eax)
    1619:	0f b6 45 e8          	movzbl -0x18(%ebp),%eax
    161d:	83 c8 0c             	or     $0xc,%eax
    1620:	0f b6 d0             	movzbl %al,%edx
    1623:	8b 45 f0             	mov    -0x10(%ebp),%eax
    1626:	89 50 08             	mov    %edx,0x8(%eax)
    1629:	0f b6 45 e8          	movzbl -0x18(%ebp),%eax
    162d:	83 c8 0c             	or     $0xc,%eax
    1630:	0f b6 d0             	movzbl %al,%edx
    1633:	8b 45 f0             	mov    -0x10(%ebp),%eax
    1636:	89 50 04             	mov    %edx,0x4(%eax)
    1639:	0f b6 45 e8          	movzbl -0x18(%ebp),%eax
    163d:	83 c8 0c             	or     $0xc,%eax
    1640:	0f b6 d0             	movzbl %al,%edx
    1643:	8b 45 f0             	mov    -0x10(%ebp),%eax
    1646:	89 50 44             	mov    %edx,0x44(%eax)
    1649:	0f b6 45 e8          	movzbl -0x18(%ebp),%eax
    164d:	83 c8 18             	or     $0x18,%eax
    1650:	0f b6 d0             	movzbl %al,%edx
    1653:	8b 45 f0             	mov    -0x10(%ebp),%eax
    1656:	89 10                	mov    %edx,(%eax)
    1658:	8b 45 f4             	mov    -0xc(%ebp),%eax
    165b:	8b 00                	mov    (%eax),%eax
    165d:	89 c2                	mov    %eax,%edx
    165f:	8b 45 f0             	mov    -0x10(%ebp),%eax
    1662:	89 50 34             	mov    %edx,0x34(%eax)
    1665:	8b 55 ec             	mov    -0x14(%ebp),%edx
    1668:	8b 45 f0             	mov    -0x10(%ebp),%eax
    166b:	89 50 40             	mov    %edx,0x40(%eax)
    166e:	8b 55 e4             	mov    -0x1c(%ebp),%edx
    1671:	8b 45 f0             	mov    -0x10(%ebp),%eax
    1674:	89 50 3c             	mov    %edx,0x3c(%eax)
    1677:	8b 45 f0             	mov    -0x10(%ebp),%eax
    167a:	c7 40 78 00 00 00 00 	movl   $0x0,0x78(%eax)
    1681:	8b 45 f0             	mov    -0x10(%ebp),%eax
    1684:	c7 40 7c 00 00 00 00 	movl   $0x0,0x7c(%eax)
    168b:	8b 45 f0             	mov    -0x10(%ebp),%eax
    168e:	c7 80 80 00 00 00 1b 	movl   $0x1b,0x80(%eax)
    1695:	00 00 00 
    1698:	8b 45 f0             	mov    -0x10(%ebp),%eax
    169b:	c7 80 84 00 00 00 1b 	movl   $0x1b,0x84(%eax)
    16a2:	00 00 00 
    16a5:	8b 45 f0             	mov    -0x10(%ebp),%eax
    16a8:	c7 80 88 00 00 00 00 	movl   $0x0,0x88(%eax)
    16af:	00 00 00 
    16b2:	8b 45 f0             	mov    -0x10(%ebp),%eax
    16b5:	c7 80 8c 00 00 00 00 	movl   $0x0,0x8c(%eax)
    16bc:	00 00 00 
    16bf:	8b 45 f0             	mov    -0x10(%ebp),%eax
    16c2:	c7 80 90 00 00 00 00 	movl   $0x0,0x90(%eax)
    16c9:	00 00 00 
    16cc:	c7 45 dc 00 00 00 00 	movl   $0x0,-0x24(%ebp)
    16d3:	eb 15                	jmp    16ea <kernel_main+0x20d>
    16d5:	8b 45 f0             	mov    -0x10(%ebp),%eax
    16d8:	8b 55 dc             	mov    -0x24(%ebp),%edx
    16db:	83 c2 24             	add    $0x24,%edx
    16de:	c7 44 90 04 00 00 00 	movl   $0x0,0x4(%eax,%edx,4)
    16e5:	00 
    16e6:	83 45 dc 01          	addl   $0x1,-0x24(%ebp)
    16ea:	83 7d dc 3f          	cmpl   $0x3f,-0x24(%ebp)
    16ee:	7e e5                	jle    16d5 <kernel_main+0x1f8>
    16f0:	8b 45 f0             	mov    -0x10(%ebp),%eax
    16f3:	8b 55 d8             	mov    -0x28(%ebp),%edx
    16f6:	89 50 60             	mov    %edx,0x60(%eax)
    16f9:	8b 45 f0             	mov    -0x10(%ebp),%eax
    16fc:	8b 50 60             	mov    0x60(%eax),%edx
    16ff:	8b 45 f0             	mov    -0x10(%ebp),%eax
    1702:	89 50 5c             	mov    %edx,0x5c(%eax)
    1705:	8b 45 f4             	mov    -0xc(%ebp),%eax
    1708:	8b 40 04             	mov    0x4(%eax),%eax
    170b:	f7 d8                	neg    %eax
    170d:	01 45 ec             	add    %eax,-0x14(%ebp)
    1710:	81 45 f0 94 01 00 00 	addl   $0x194,-0x10(%ebp)
    1717:	83 45 f4 28          	addl   $0x28,-0xc(%ebp)
    171b:	66 83 45 ea 08       	addw   $0x8,-0x16(%ebp)
    1720:	83 45 e0 01          	addl   $0x1,-0x20(%ebp)
    1724:	83 7d e0 06          	cmpl   $0x6,-0x20(%ebp)
    1728:	0f 8e e5 fd ff ff    	jle    1513 <kernel_main+0x36>
    172e:	c7 05 a0 93 04 00 00 	movl   $0x0,0x493a0
    1735:	00 00 00 
    1738:	c7 05 20 b2 04 00 00 	movl   $0x0,0x4b220
    173f:	00 00 00 
    1742:	c7 05 c0 b2 04 00 e0 	movl   $0x4b2e0,0x4b2c0
    1749:	b2 04 00 
    174c:	e8 64 05 00 00       	call   1cb5 <init_clock>
    1751:	e8 21 06 00 00       	call   1d77 <init_keyboard>
    1756:	e8 a0 fc ff ff       	call   13fb <restart>
    175b:	eb fe                	jmp    175b <kernel_main+0x27e>

0000175d <get_ticks>:
    175d:	55                   	push   %ebp
    175e:	89 e5                	mov    %esp,%ebp
    1760:	83 ec 38             	sub    $0x38,%esp
    1763:	83 ec 0c             	sub    $0xc,%esp
    1766:	8d 45 c8             	lea    -0x38(%ebp),%eax
    1769:	50                   	push   %eax
    176a:	e8 68 28 00 00       	call   3fd7 <reset_msg>
    176f:	83 c4 10             	add    $0x10,%esp
    1772:	c7 45 cc 02 00 00 00 	movl   $0x2,-0x34(%ebp)
    1779:	83 ec 04             	sub    $0x4,%esp
    177c:	8d 45 c8             	lea    -0x38(%ebp),%eax
    177f:	50                   	push   %eax
    1780:	6a 01                	push   $0x1
    1782:	6a 03                	push   $0x3
    1784:	e8 e6 26 00 00       	call   3e6f <send_recv>
    1789:	83 c4 10             	add    $0x10,%esp
    178c:	8b 45 d0             	mov    -0x30(%ebp),%eax
    178f:	c9                   	leave  
    1790:	c3                   	ret    

00001791 <TestA>:
    1791:	55                   	push   %ebp
    1792:	89 e5                	mov    %esp,%ebp
    1794:	53                   	push   %ebx
    1795:	83 ec 54             	sub    $0x54,%esp
    1798:	89 e0                	mov    %esp,%eax
    179a:	89 c3                	mov    %eax,%ebx
    179c:	c7 45 d3 62 6c 61 68 	movl   $0x68616c62,-0x2d(%ebp)
    17a3:	c7 45 d7 00 00 00 00 	movl   $0x0,-0x29(%ebp)
    17aa:	c7 45 db 00 00 00 00 	movl   $0x0,-0x25(%ebp)
    17b1:	c6 45 df 00          	movb   $0x0,-0x21(%ebp)
    17b5:	c7 45 cd 61 62 63 64 	movl   $0x64636261,-0x33(%ebp)
    17bc:	66 c7 45 d1 65 00    	movw   $0x65,-0x2f(%ebp)
    17c2:	c7 45 f0 03 00 00 00 	movl   $0x3,-0x10(%ebp)
    17c9:	8b 45 f0             	mov    -0x10(%ebp),%eax
    17cc:	83 e8 01             	sub    $0x1,%eax
    17cf:	89 45 ec             	mov    %eax,-0x14(%ebp)
    17d2:	8b 45 f0             	mov    -0x10(%ebp),%eax
    17d5:	ba 10 00 00 00       	mov    $0x10,%edx
    17da:	83 ea 01             	sub    $0x1,%edx
    17dd:	01 d0                	add    %edx,%eax
    17df:	b9 10 00 00 00       	mov    $0x10,%ecx
    17e4:	ba 00 00 00 00       	mov    $0x0,%edx
    17e9:	f7 f1                	div    %ecx
    17eb:	6b c0 10             	imul   $0x10,%eax,%eax
    17ee:	29 c4                	sub    %eax,%esp
    17f0:	89 e0                	mov    %esp,%eax
    17f2:	83 c0 00             	add    $0x0,%eax
    17f5:	89 45 e8             	mov    %eax,-0x18(%ebp)
    17f8:	83 ec 0c             	sub    $0xc,%esp
    17fb:	8d 45 cd             	lea    -0x33(%ebp),%eax
    17fe:	50                   	push   %eax
    17ff:	e8 3e 51 00 00       	call   6942 <strlen>
    1804:	83 c4 10             	add    $0x10,%esp
    1807:	39 45 f0             	cmp    %eax,-0x10(%ebp)
    180a:	7e 1c                	jle    1828 <TestA+0x97>
    180c:	68 8c 00 00 00       	push   $0x8c
    1811:	68 08 a8 00 00       	push   $0xa808
    1816:	68 08 a8 00 00       	push   $0xa808
    181b:	68 16 a8 00 00       	push   $0xa816
    1820:	e8 8e 52 00 00       	call   6ab3 <assertion_failure>
    1825:	83 c4 10             	add    $0x10,%esp
    1828:	83 ec 08             	sub    $0x8,%esp
    182b:	6a 03                	push   $0x3
    182d:	8d 45 d3             	lea    -0x2d(%ebp),%eax
    1830:	50                   	push   %eax
    1831:	e8 b6 52 00 00       	call   6aec <open>
    1836:	83 c4 10             	add    $0x10,%esp
    1839:	89 45 e4             	mov    %eax,-0x1c(%ebp)
    183c:	83 7d e4 ff          	cmpl   $0xffffffff,-0x1c(%ebp)
    1840:	75 1c                	jne    185e <TestA+0xcd>
    1842:	68 90 00 00 00       	push   $0x90
    1847:	68 08 a8 00 00       	push   $0xa808
    184c:	68 08 a8 00 00       	push   $0xa808
    1851:	68 2f a8 00 00       	push   $0xa82f
    1856:	e8 58 52 00 00       	call   6ab3 <assertion_failure>
    185b:	83 c4 10             	add    $0x10,%esp
    185e:	83 ec 04             	sub    $0x4,%esp
    1861:	ff 75 e4             	pushl  -0x1c(%ebp)
    1864:	8d 45 d3             	lea    -0x2d(%ebp),%eax
    1867:	50                   	push   %eax
    1868:	68 38 a8 00 00       	push   $0xa838
    186d:	e8 55 4a 00 00       	call   62c7 <printl>
    1872:	83 c4 10             	add    $0x10,%esp
    1875:	83 ec 0c             	sub    $0xc,%esp
    1878:	8d 45 cd             	lea    -0x33(%ebp),%eax
    187b:	50                   	push   %eax
    187c:	e8 c1 50 00 00       	call   6942 <strlen>
    1881:	83 c4 10             	add    $0x10,%esp
    1884:	83 ec 04             	sub    $0x4,%esp
    1887:	50                   	push   %eax
    1888:	8d 45 cd             	lea    -0x33(%ebp),%eax
    188b:	50                   	push   %eax
    188c:	ff 75 e4             	pushl  -0x1c(%ebp)
    188f:	e8 f2 52 00 00       	call   6b86 <write>
    1894:	83 c4 10             	add    $0x10,%esp
    1897:	89 45 e0             	mov    %eax,-0x20(%ebp)
    189a:	83 ec 0c             	sub    $0xc,%esp
    189d:	8d 45 cd             	lea    -0x33(%ebp),%eax
    18a0:	50                   	push   %eax
    18a1:	e8 9c 50 00 00       	call   6942 <strlen>
    18a6:	83 c4 10             	add    $0x10,%esp
    18a9:	39 45 e0             	cmp    %eax,-0x20(%ebp)
    18ac:	74 1c                	je     18ca <TestA+0x139>
    18ae:	68 95 00 00 00       	push   $0x95
    18b3:	68 08 a8 00 00       	push   $0xa808
    18b8:	68 08 a8 00 00       	push   $0xa808
    18bd:	68 52 a8 00 00       	push   $0xa852
    18c2:	e8 ec 51 00 00       	call   6ab3 <assertion_failure>
    18c7:	83 c4 10             	add    $0x10,%esp
    18ca:	83 ec 0c             	sub    $0xc,%esp
    18cd:	ff 75 e4             	pushl  -0x1c(%ebp)
    18d0:	e8 e8 52 00 00       	call   6bbd <close>
    18d5:	83 c4 10             	add    $0x10,%esp
    18d8:	83 ec 08             	sub    $0x8,%esp
    18db:	6a 02                	push   $0x2
    18dd:	8d 45 d3             	lea    -0x2d(%ebp),%eax
    18e0:	50                   	push   %eax
    18e1:	e8 06 52 00 00       	call   6aec <open>
    18e6:	83 c4 10             	add    $0x10,%esp
    18e9:	89 45 e4             	mov    %eax,-0x1c(%ebp)
    18ec:	83 7d e4 ff          	cmpl   $0xffffffff,-0x1c(%ebp)
    18f0:	75 1c                	jne    190e <TestA+0x17d>
    18f2:	68 9c 00 00 00       	push   $0x9c
    18f7:	68 08 a8 00 00       	push   $0xa808
    18fc:	68 08 a8 00 00       	push   $0xa808
    1901:	68 2f a8 00 00       	push   $0xa82f
    1906:	e8 a8 51 00 00       	call   6ab3 <assertion_failure>
    190b:	83 c4 10             	add    $0x10,%esp
    190e:	83 ec 08             	sub    $0x8,%esp
    1911:	ff 75 e4             	pushl  -0x1c(%ebp)
    1914:	68 64 a8 00 00       	push   $0xa864
    1919:	e8 a9 49 00 00       	call   62c7 <printl>
    191e:	83 c4 10             	add    $0x10,%esp
    1921:	8b 45 e8             	mov    -0x18(%ebp),%eax
    1924:	83 ec 04             	sub    $0x4,%esp
    1927:	ff 75 f0             	pushl  -0x10(%ebp)
    192a:	50                   	push   %eax
    192b:	ff 75 e4             	pushl  -0x1c(%ebp)
    192e:	e8 1c 52 00 00       	call   6b4f <read>
    1933:	83 c4 10             	add    $0x10,%esp
    1936:	89 45 e0             	mov    %eax,-0x20(%ebp)
    1939:	8b 45 e0             	mov    -0x20(%ebp),%eax
    193c:	3b 45 f0             	cmp    -0x10(%ebp),%eax
    193f:	74 1c                	je     195d <TestA+0x1cc>
    1941:	68 a1 00 00 00       	push   $0xa1
    1946:	68 08 a8 00 00       	push   $0xa808
    194b:	68 08 a8 00 00       	push   $0xa808
    1950:	68 79 a8 00 00       	push   $0xa879
    1955:	e8 59 51 00 00       	call   6ab3 <assertion_failure>
    195a:	83 c4 10             	add    $0x10,%esp
    195d:	8b 55 e8             	mov    -0x18(%ebp),%edx
    1960:	8b 45 e0             	mov    -0x20(%ebp),%eax
    1963:	01 d0                	add    %edx,%eax
    1965:	c6 00 00             	movb   $0x0,(%eax)
    1968:	8b 45 e8             	mov    -0x18(%ebp),%eax
    196b:	83 ec 04             	sub    $0x4,%esp
    196e:	50                   	push   %eax
    196f:	ff 75 e0             	pushl  -0x20(%ebp)
    1972:	68 87 a8 00 00       	push   $0xa887
    1977:	e8 4b 49 00 00       	call   62c7 <printl>
    197c:	83 c4 10             	add    $0x10,%esp
    197f:	83 ec 0c             	sub    $0xc,%esp
    1982:	ff 75 e4             	pushl  -0x1c(%ebp)
    1985:	e8 33 52 00 00       	call   6bbd <close>
    198a:	83 c4 10             	add    $0x10,%esp
    198d:	c7 45 c0 9a a8 00 00 	movl   $0xa89a,-0x40(%ebp)
    1994:	c7 45 c4 9f a8 00 00 	movl   $0xa89f,-0x3c(%ebp)
    199b:	c7 45 c8 a4 a8 00 00 	movl   $0xa8a4,-0x38(%ebp)
    19a2:	c7 45 f4 00 00 00 00 	movl   $0x0,-0xc(%ebp)
    19a9:	eb 67                	jmp    1a12 <TestA+0x281>
    19ab:	8b 45 f4             	mov    -0xc(%ebp),%eax
    19ae:	8b 44 85 c0          	mov    -0x40(%ebp,%eax,4),%eax
    19b2:	83 ec 08             	sub    $0x8,%esp
    19b5:	6a 03                	push   $0x3
    19b7:	50                   	push   %eax
    19b8:	e8 2f 51 00 00       	call   6aec <open>
    19bd:	83 c4 10             	add    $0x10,%esp
    19c0:	89 45 e4             	mov    %eax,-0x1c(%ebp)
    19c3:	83 7d e4 ff          	cmpl   $0xffffffff,-0x1c(%ebp)
    19c7:	75 1c                	jne    19e5 <TestA+0x254>
    19c9:	68 ad 00 00 00       	push   $0xad
    19ce:	68 08 a8 00 00       	push   $0xa808
    19d3:	68 08 a8 00 00       	push   $0xa808
    19d8:	68 2f a8 00 00       	push   $0xa82f
    19dd:	e8 d1 50 00 00       	call   6ab3 <assertion_failure>
    19e2:	83 c4 10             	add    $0x10,%esp
    19e5:	8b 45 f4             	mov    -0xc(%ebp),%eax
    19e8:	8b 44 85 c0          	mov    -0x40(%ebp,%eax,4),%eax
    19ec:	83 ec 04             	sub    $0x4,%esp
    19ef:	ff 75 e4             	pushl  -0x1c(%ebp)
    19f2:	50                   	push   %eax
    19f3:	68 38 a8 00 00       	push   $0xa838
    19f8:	e8 ca 48 00 00       	call   62c7 <printl>
    19fd:	83 c4 10             	add    $0x10,%esp
    1a00:	83 ec 0c             	sub    $0xc,%esp
    1a03:	ff 75 e4             	pushl  -0x1c(%ebp)
    1a06:	e8 b2 51 00 00       	call   6bbd <close>
    1a0b:	83 c4 10             	add    $0x10,%esp
    1a0e:	83 45 f4 01          	addl   $0x1,-0xc(%ebp)
    1a12:	8b 45 f4             	mov    -0xc(%ebp),%eax
    1a15:	83 f8 02             	cmp    $0x2,%eax
    1a18:	76 91                	jbe    19ab <TestA+0x21a>
    1a1a:	c7 45 b0 9f a8 00 00 	movl   $0xa89f,-0x50(%ebp)
    1a21:	c7 45 b4 9a a8 00 00 	movl   $0xa89a,-0x4c(%ebp)
    1a28:	c7 45 b8 a4 a8 00 00 	movl   $0xa8a4,-0x48(%ebp)
    1a2f:	c7 45 bc a9 a8 00 00 	movl   $0xa8a9,-0x44(%ebp)
    1a36:	c7 45 f4 00 00 00 00 	movl   $0x0,-0xc(%ebp)
    1a3d:	eb 4d                	jmp    1a8c <TestA+0x2fb>
    1a3f:	8b 45 f4             	mov    -0xc(%ebp),%eax
    1a42:	8b 44 85 b0          	mov    -0x50(%ebp,%eax,4),%eax
    1a46:	83 ec 0c             	sub    $0xc,%esp
    1a49:	50                   	push   %eax
    1a4a:	e8 99 51 00 00       	call   6be8 <unlink>
    1a4f:	83 c4 10             	add    $0x10,%esp
    1a52:	85 c0                	test   %eax,%eax
    1a54:	75 1a                	jne    1a70 <TestA+0x2df>
    1a56:	8b 45 f4             	mov    -0xc(%ebp),%eax
    1a59:	8b 44 85 b0          	mov    -0x50(%ebp,%eax,4),%eax
    1a5d:	83 ec 08             	sub    $0x8,%esp
    1a60:	50                   	push   %eax
    1a61:	68 b3 a8 00 00       	push   $0xa8b3
    1a66:	e8 5c 48 00 00       	call   62c7 <printl>
    1a6b:	83 c4 10             	add    $0x10,%esp
    1a6e:	eb 18                	jmp    1a88 <TestA+0x2f7>
    1a70:	8b 45 f4             	mov    -0xc(%ebp),%eax
    1a73:	8b 44 85 b0          	mov    -0x50(%ebp,%eax,4),%eax
    1a77:	83 ec 08             	sub    $0x8,%esp
    1a7a:	50                   	push   %eax
    1a7b:	68 c5 a8 00 00       	push   $0xa8c5
    1a80:	e8 42 48 00 00       	call   62c7 <printl>
    1a85:	83 c4 10             	add    $0x10,%esp
    1a88:	83 45 f4 01          	addl   $0x1,-0xc(%ebp)
    1a8c:	8b 45 f4             	mov    -0xc(%ebp),%eax
    1a8f:	83 f8 03             	cmp    $0x3,%eax
    1a92:	76 ab                	jbe    1a3f <TestA+0x2ae>
    1a94:	83 ec 0c             	sub    $0xc,%esp
    1a97:	68 e0 a8 00 00       	push   $0xa8e0
    1a9c:	e8 f7 4f 00 00       	call   6a98 <spin>
    1aa1:	83 c4 10             	add    $0x10,%esp
    1aa4:	89 dc                	mov    %ebx,%esp
    1aa6:	90                   	nop
    1aa7:	8b 5d fc             	mov    -0x4(%ebp),%ebx
    1aaa:	c9                   	leave  
    1aab:	c3                   	ret    

00001aac <TestB>:
    1aac:	55                   	push   %ebp
    1aad:	89 e5                	mov    %esp,%ebp
    1aaf:	81 ec a8 00 00 00    	sub    $0xa8,%esp
    1ab5:	c7 45 e2 2f 64 65 76 	movl   $0x7665642f,-0x1e(%ebp)
    1abc:	c7 45 e6 5f 74 74 79 	movl   $0x7974745f,-0x1a(%ebp)
    1ac3:	66 c7 45 ea 31 00    	movw   $0x31,-0x16(%ebp)
    1ac9:	83 ec 08             	sub    $0x8,%esp
    1acc:	6a 02                	push   $0x2
    1ace:	8d 45 e2             	lea    -0x1e(%ebp),%eax
    1ad1:	50                   	push   %eax
    1ad2:	e8 15 50 00 00       	call   6aec <open>
    1ad7:	83 c4 10             	add    $0x10,%esp
    1ada:	89 45 f4             	mov    %eax,-0xc(%ebp)
    1add:	83 7d f4 00          	cmpl   $0x0,-0xc(%ebp)
    1ae1:	74 1c                	je     1aff <TestB+0x53>
    1ae3:	68 c7 00 00 00       	push   $0xc7
    1ae8:	68 08 a8 00 00       	push   $0xa808
    1aed:	68 08 a8 00 00       	push   $0xa808
    1af2:	68 e6 a8 00 00       	push   $0xa8e6
    1af7:	e8 b7 4f 00 00       	call   6ab3 <assertion_failure>
    1afc:	83 c4 10             	add    $0x10,%esp
    1aff:	83 ec 08             	sub    $0x8,%esp
    1b02:	6a 02                	push   $0x2
    1b04:	8d 45 e2             	lea    -0x1e(%ebp),%eax
    1b07:	50                   	push   %eax
    1b08:	e8 df 4f 00 00       	call   6aec <open>
    1b0d:	83 c4 10             	add    $0x10,%esp
    1b10:	89 45 f0             	mov    %eax,-0x10(%ebp)
    1b13:	83 7d f0 01          	cmpl   $0x1,-0x10(%ebp)
    1b17:	74 1c                	je     1b35 <TestB+0x89>
    1b19:	68 c9 00 00 00       	push   $0xc9
    1b1e:	68 08 a8 00 00       	push   $0xa808
    1b23:	68 08 a8 00 00       	push   $0xa808
    1b28:	68 f4 a8 00 00       	push   $0xa8f4
    1b2d:	e8 81 4f 00 00       	call   6ab3 <assertion_failure>
    1b32:	83 c4 10             	add    $0x10,%esp
    1b35:	83 ec 0c             	sub    $0xc,%esp
    1b38:	68 03 a9 00 00       	push   $0xa903
    1b3d:	e8 1a 47 00 00       	call   625c <printf>
    1b42:	83 c4 10             	add    $0x10,%esp
    1b45:	83 ec 04             	sub    $0x4,%esp
    1b48:	6a 46                	push   $0x46
    1b4a:	8d 85 62 ff ff ff    	lea    -0x9e(%ebp),%eax
    1b50:	50                   	push   %eax
    1b51:	ff 75 f4             	pushl  -0xc(%ebp)
    1b54:	e8 f6 4f 00 00       	call   6b4f <read>
    1b59:	83 c4 10             	add    $0x10,%esp
    1b5c:	89 45 ec             	mov    %eax,-0x14(%ebp)
    1b5f:	8d 95 62 ff ff ff    	lea    -0x9e(%ebp),%edx
    1b65:	8b 45 ec             	mov    -0x14(%ebp),%eax
    1b68:	01 d0                	add    %edx,%eax
    1b6a:	c6 00 00             	movb   $0x0,(%eax)
    1b6d:	83 ec 08             	sub    $0x8,%esp
    1b70:	68 06 a9 00 00       	push   $0xa906
    1b75:	8d 85 62 ff ff ff    	lea    -0x9e(%ebp),%eax
    1b7b:	50                   	push   %eax
    1b7c:	e8 49 4e 00 00       	call   69ca <strcmp>
    1b81:	83 c4 10             	add    $0x10,%esp
    1b84:	85 c0                	test   %eax,%eax
    1b86:	75 12                	jne    1b9a <TestB+0xee>
    1b88:	83 ec 0c             	sub    $0xc,%esp
    1b8b:	68 0c a9 00 00       	push   $0xa90c
    1b90:	e8 c7 46 00 00       	call   625c <printf>
    1b95:	83 c4 10             	add    $0x10,%esp
    1b98:	eb 9b                	jmp    1b35 <TestB+0x89>
    1b9a:	0f b6 85 62 ff ff ff 	movzbl -0x9e(%ebp),%eax
    1ba1:	84 c0                	test   %al,%al
    1ba3:	74 90                	je     1b35 <TestB+0x89>
    1ba5:	83 ec 08             	sub    $0x8,%esp
    1ba8:	8d 85 62 ff ff ff    	lea    -0x9e(%ebp),%eax
    1bae:	50                   	push   %eax
    1baf:	68 1a a9 00 00       	push   $0xa91a
    1bb4:	e8 a3 46 00 00       	call   625c <printf>
    1bb9:	83 c4 10             	add    $0x10,%esp
    1bbc:	e9 74 ff ff ff       	jmp    1b35 <TestB+0x89>

00001bc1 <TestC>:
    1bc1:	55                   	push   %ebp
    1bc2:	89 e5                	mov    %esp,%ebp
    1bc4:	90                   	nop
    1bc5:	5d                   	pop    %ebp
    1bc6:	c3                   	ret    

00001bc7 <panic>:
    1bc7:	55                   	push   %ebp
    1bc8:	89 e5                	mov    %esp,%ebp
    1bca:	81 ec 18 01 00 00    	sub    $0x118,%esp
    1bd0:	8d 45 0c             	lea    0xc(%ebp),%eax
    1bd3:	89 45 f4             	mov    %eax,-0xc(%ebp)
    1bd6:	8b 45 08             	mov    0x8(%ebp),%eax
    1bd9:	83 ec 04             	sub    $0x4,%esp
    1bdc:	ff 75 f4             	pushl  -0xc(%ebp)
    1bdf:	50                   	push   %eax
    1be0:	8d 85 f0 fe ff ff    	lea    -0x110(%ebp),%eax
    1be6:	50                   	push   %eax
    1be7:	e8 83 47 00 00       	call   636f <vsprintf>
    1bec:	83 c4 10             	add    $0x10,%esp
    1bef:	89 45 f0             	mov    %eax,-0x10(%ebp)
    1bf2:	83 ec 04             	sub    $0x4,%esp
    1bf5:	8d 85 f0 fe ff ff    	lea    -0x110(%ebp),%eax
    1bfb:	50                   	push   %eax
    1bfc:	6a 02                	push   $0x2
    1bfe:	68 20 a9 00 00       	push   $0xa920
    1c03:	e8 bf 46 00 00       	call   62c7 <printl>
    1c08:	83 c4 10             	add    $0x10,%esp
    1c0b:	0f 0b                	ud2    
    1c0d:	90                   	nop
    1c0e:	c9                   	leave  
    1c0f:	c3                   	ret    

00001c10 <clock_handler>:
    1c10:	55                   	push   %ebp
    1c11:	89 e5                	mov    %esp,%ebp
    1c13:	83 ec 08             	sub    $0x8,%esp
    1c16:	a1 20 b2 04 00       	mov    0x4b220,%eax
    1c1b:	83 c0 01             	add    $0x1,%eax
    1c1e:	a3 20 b2 04 00       	mov    %eax,0x4b220
    1c23:	a1 20 b2 04 00       	mov    0x4b220,%eax
    1c28:	3d cc ab ff 7f       	cmp    $0x7fffabcc,%eax
    1c2d:	7e 0a                	jle    1c39 <clock_handler+0x29>
    1c2f:	c7 05 20 b2 04 00 00 	movl   $0x0,0x4b220
    1c36:	00 00 00 
    1c39:	a1 c0 b2 04 00       	mov    0x4b2c0,%eax
    1c3e:	8b 40 5c             	mov    0x5c(%eax),%eax
    1c41:	85 c0                	test   %eax,%eax
    1c43:	74 0e                	je     1c53 <clock_handler+0x43>
    1c45:	a1 c0 b2 04 00       	mov    0x4b2c0,%eax
    1c4a:	8b 50 5c             	mov    0x5c(%eax),%edx
    1c4d:	83 ea 01             	sub    $0x1,%edx
    1c50:	89 50 5c             	mov    %edx,0x5c(%eax)
    1c53:	a1 28 a8 04 00       	mov    0x4a828,%eax
    1c58:	85 c0                	test   %eax,%eax
    1c5a:	74 0d                	je     1c69 <clock_handler+0x59>
    1c5c:	83 ec 0c             	sub    $0xc,%esp
    1c5f:	6a 00                	push   $0x0
    1c61:	e8 67 31 00 00       	call   4dcd <inform_int>
    1c66:	83 c4 10             	add    $0x10,%esp
    1c69:	a1 a0 93 04 00       	mov    0x493a0,%eax
    1c6e:	85 c0                	test   %eax,%eax
    1c70:	75 13                	jne    1c85 <clock_handler+0x75>
    1c72:	a1 c0 b2 04 00       	mov    0x4b2c0,%eax
    1c77:	8b 40 5c             	mov    0x5c(%eax),%eax
    1c7a:	85 c0                	test   %eax,%eax
    1c7c:	7f 0a                	jg     1c88 <clock_handler+0x78>
    1c7e:	e8 42 20 00 00       	call   3cc5 <schedule>
    1c83:	eb 04                	jmp    1c89 <clock_handler+0x79>
    1c85:	90                   	nop
    1c86:	eb 01                	jmp    1c89 <clock_handler+0x79>
    1c88:	90                   	nop
    1c89:	c9                   	leave  
    1c8a:	c3                   	ret    

00001c8b <milli_delay>:
    1c8b:	55                   	push   %ebp
    1c8c:	89 e5                	mov    %esp,%ebp
    1c8e:	83 ec 18             	sub    $0x18,%esp
    1c91:	e8 c7 fa ff ff       	call   175d <get_ticks>
    1c96:	89 45 f4             	mov    %eax,-0xc(%ebp)
    1c99:	90                   	nop
    1c9a:	e8 be fa ff ff       	call   175d <get_ticks>
    1c9f:	2b 45 f4             	sub    -0xc(%ebp),%eax
    1ca2:	89 c2                	mov    %eax,%edx
    1ca4:	89 d0                	mov    %edx,%eax
    1ca6:	c1 e0 02             	shl    $0x2,%eax
    1ca9:	01 d0                	add    %edx,%eax
    1cab:	01 c0                	add    %eax,%eax
    1cad:	39 45 08             	cmp    %eax,0x8(%ebp)
    1cb0:	7f e8                	jg     1c9a <milli_delay+0xf>
    1cb2:	90                   	nop
    1cb3:	c9                   	leave  
    1cb4:	c3                   	ret    

00001cb5 <init_clock>:
    1cb5:	55                   	push   %ebp
    1cb6:	89 e5                	mov    %esp,%ebp
    1cb8:	83 ec 08             	sub    $0x8,%esp
    1cbb:	83 ec 08             	sub    $0x8,%esp
    1cbe:	6a 34                	push   $0x34
    1cc0:	6a 43                	push   $0x43
    1cc2:	e8 d6 49 00 00       	call   669d <out_byte>
    1cc7:	83 c4 10             	add    $0x10,%esp
    1cca:	83 ec 08             	sub    $0x8,%esp
    1ccd:	68 9b 00 00 00       	push   $0x9b
    1cd2:	6a 40                	push   $0x40
    1cd4:	e8 c4 49 00 00       	call   669d <out_byte>
    1cd9:	83 c4 10             	add    $0x10,%esp
    1cdc:	83 ec 08             	sub    $0x8,%esp
    1cdf:	6a 2e                	push   $0x2e
    1ce1:	6a 40                	push   $0x40
    1ce3:	e8 b5 49 00 00       	call   669d <out_byte>
    1ce8:	83 c4 10             	add    $0x10,%esp
    1ceb:	83 ec 08             	sub    $0x8,%esp
    1cee:	68 10 1c 00 00       	push   $0x1c10
    1cf3:	6a 00                	push   $0x0
    1cf5:	e8 93 19 00 00       	call   368d <put_irq_handler>
    1cfa:	83 c4 10             	add    $0x10,%esp
    1cfd:	83 ec 0c             	sub    $0xc,%esp
    1d00:	6a 00                	push   $0x0
    1d02:	e8 07 4a 00 00       	call   670e <enable_irq>
    1d07:	83 c4 10             	add    $0x10,%esp
    1d0a:	90                   	nop
    1d0b:	c9                   	leave  
    1d0c:	c3                   	ret    

00001d0d <keyboard_handler>:
    1d0d:	55                   	push   %ebp
    1d0e:	89 e5                	mov    %esp,%ebp
    1d10:	83 ec 18             	sub    $0x18,%esp
    1d13:	83 ec 0c             	sub    $0xc,%esp
    1d16:	6a 60                	push   $0x60
    1d18:	e8 8c 49 00 00       	call   66a9 <in_byte>
    1d1d:	83 c4 10             	add    $0x10,%esp
    1d20:	88 45 f7             	mov    %al,-0x9(%ebp)
    1d23:	a1 a8 ff 00 00       	mov    0xffa8,%eax
    1d28:	83 f8 1f             	cmp    $0x1f,%eax
    1d2b:	7f 3d                	jg     1d6a <keyboard_handler+0x5d>
    1d2d:	a1 a0 ff 00 00       	mov    0xffa0,%eax
    1d32:	0f b6 55 f7          	movzbl -0x9(%ebp),%edx
    1d36:	88 10                	mov    %dl,(%eax)
    1d38:	a1 a0 ff 00 00       	mov    0xffa0,%eax
    1d3d:	83 c0 01             	add    $0x1,%eax
    1d40:	a3 a0 ff 00 00       	mov    %eax,0xffa0
    1d45:	a1 a0 ff 00 00       	mov    0xffa0,%eax
    1d4a:	ba cc ff 00 00       	mov    $0xffcc,%edx
    1d4f:	39 d0                	cmp    %edx,%eax
    1d51:	75 0a                	jne    1d5d <keyboard_handler+0x50>
    1d53:	c7 05 a0 ff 00 00 ac 	movl   $0xffac,0xffa0
    1d5a:	ff 00 00 
    1d5d:	a1 a8 ff 00 00       	mov    0xffa8,%eax
    1d62:	83 c0 01             	add    $0x1,%eax
    1d65:	a3 a8 ff 00 00       	mov    %eax,0xffa8
    1d6a:	c7 05 28 a8 04 00 01 	movl   $0x1,0x4a828
    1d71:	00 00 00 
    1d74:	90                   	nop
    1d75:	c9                   	leave  
    1d76:	c3                   	ret    

00001d77 <init_keyboard>:
    1d77:	55                   	push   %ebp
    1d78:	89 e5                	mov    %esp,%ebp
    1d7a:	83 ec 08             	sub    $0x8,%esp
    1d7d:	c7 05 a8 ff 00 00 00 	movl   $0x0,0xffa8
    1d84:	00 00 00 
    1d87:	c7 05 a4 ff 00 00 ac 	movl   $0xffac,0xffa4
    1d8e:	ff 00 00 
    1d91:	a1 a4 ff 00 00       	mov    0xffa4,%eax
    1d96:	a3 a0 ff 00 00       	mov    %eax,0xffa0
    1d9b:	c7 05 d4 ff 00 00 00 	movl   $0x0,0xffd4
    1da2:	00 00 00 
    1da5:	a1 d4 ff 00 00       	mov    0xffd4,%eax
    1daa:	a3 d0 ff 00 00       	mov    %eax,0xffd0
    1daf:	c7 05 dc ff 00 00 00 	movl   $0x0,0xffdc
    1db6:	00 00 00 
    1db9:	a1 dc ff 00 00       	mov    0xffdc,%eax
    1dbe:	a3 d8 ff 00 00       	mov    %eax,0xffd8
    1dc3:	c7 05 e4 ff 00 00 00 	movl   $0x0,0xffe4
    1dca:	00 00 00 
    1dcd:	a1 e4 ff 00 00       	mov    0xffe4,%eax
    1dd2:	a3 e0 ff 00 00       	mov    %eax,0xffe0
    1dd7:	c7 05 e8 ff 00 00 00 	movl   $0x0,0xffe8
    1dde:	00 00 00 
    1de1:	c7 05 ec ff 00 00 01 	movl   $0x1,0xffec
    1de8:	00 00 00 
    1deb:	c7 05 f0 ff 00 00 00 	movl   $0x0,0xfff0
    1df2:	00 00 00 
    1df5:	c7 05 f4 ff 00 00 00 	movl   $0x0,0xfff4
    1dfc:	00 00 00 
    1dff:	e8 8d 05 00 00       	call   2391 <set_leds>
    1e04:	83 ec 08             	sub    $0x8,%esp
    1e07:	68 0d 1d 00 00       	push   $0x1d0d
    1e0c:	6a 01                	push   $0x1
    1e0e:	e8 7a 18 00 00       	call   368d <put_irq_handler>
    1e13:	83 c4 10             	add    $0x10,%esp
    1e16:	83 ec 0c             	sub    $0xc,%esp
    1e19:	6a 01                	push   $0x1
    1e1b:	e8 ee 48 00 00       	call   670e <enable_irq>
    1e20:	83 c4 10             	add    $0x10,%esp
    1e23:	90                   	nop
    1e24:	c9                   	leave  
    1e25:	c3                   	ret    

00001e26 <keyboard_read>:
    1e26:	55                   	push   %ebp
    1e27:	89 e5                	mov    %esp,%ebp
    1e29:	83 ec 38             	sub    $0x38,%esp
    1e2c:	c7 45 ec 00 00 00 00 	movl   $0x0,-0x14(%ebp)
    1e33:	e9 a9 04 00 00       	jmp    22e1 <keyboard_read+0x4bb>
    1e38:	c7 05 cc ff 00 00 00 	movl   $0x0,0xffcc
    1e3f:	00 00 00 
    1e42:	e8 aa 04 00 00       	call   22f1 <get_byte_from_kb_buf>
    1e47:	88 45 f7             	mov    %al,-0x9(%ebp)
    1e4a:	80 7d f7 e1          	cmpb   $0xe1,-0x9(%ebp)
    1e4e:	75 67                	jne    1eb7 <keyboard_read+0x91>
    1e50:	c6 45 d2 e1          	movb   $0xe1,-0x2e(%ebp)
    1e54:	c6 45 d3 1d          	movb   $0x1d,-0x2d(%ebp)
    1e58:	c6 45 d4 45          	movb   $0x45,-0x2c(%ebp)
    1e5c:	c6 45 d5 e1          	movb   $0xe1,-0x2b(%ebp)
    1e60:	c6 45 d6 9d          	movb   $0x9d,-0x2a(%ebp)
    1e64:	c6 45 d7 c5          	movb   $0xc5,-0x29(%ebp)
    1e68:	c7 45 e4 01 00 00 00 	movl   $0x1,-0x1c(%ebp)
    1e6f:	c7 45 e8 01 00 00 00 	movl   $0x1,-0x18(%ebp)
    1e76:	eb 23                	jmp    1e9b <keyboard_read+0x75>
    1e78:	e8 74 04 00 00       	call   22f1 <get_byte_from_kb_buf>
    1e7d:	89 c1                	mov    %eax,%ecx
    1e7f:	8d 55 d2             	lea    -0x2e(%ebp),%edx
    1e82:	8b 45 e8             	mov    -0x18(%ebp),%eax
    1e85:	01 d0                	add    %edx,%eax
    1e87:	0f b6 00             	movzbl (%eax),%eax
    1e8a:	38 c1                	cmp    %al,%cl
    1e8c:	74 09                	je     1e97 <keyboard_read+0x71>
    1e8e:	c7 45 e4 00 00 00 00 	movl   $0x0,-0x1c(%ebp)
    1e95:	eb 0a                	jmp    1ea1 <keyboard_read+0x7b>
    1e97:	83 45 e8 01          	addl   $0x1,-0x18(%ebp)
    1e9b:	83 7d e8 05          	cmpl   $0x5,-0x18(%ebp)
    1e9f:	7e d7                	jle    1e78 <keyboard_read+0x52>
    1ea1:	83 7d e4 00          	cmpl   $0x0,-0x1c(%ebp)
    1ea5:	0f 84 b2 00 00 00    	je     1f5d <keyboard_read+0x137>
    1eab:	c7 45 ec 1e 01 00 00 	movl   $0x11e,-0x14(%ebp)
    1eb2:	e9 a6 00 00 00       	jmp    1f5d <keyboard_read+0x137>
    1eb7:	80 7d f7 e0          	cmpb   $0xe0,-0x9(%ebp)
    1ebb:	0f 85 9c 00 00 00    	jne    1f5d <keyboard_read+0x137>
    1ec1:	c7 05 cc ff 00 00 01 	movl   $0x1,0xffcc
    1ec8:	00 00 00 
    1ecb:	e8 21 04 00 00       	call   22f1 <get_byte_from_kb_buf>
    1ed0:	88 45 f7             	mov    %al,-0x9(%ebp)
    1ed3:	80 7d f7 2a          	cmpb   $0x2a,-0x9(%ebp)
    1ed7:	75 40                	jne    1f19 <keyboard_read+0xf3>
    1ed9:	c7 05 cc ff 00 00 00 	movl   $0x0,0xffcc
    1ee0:	00 00 00 
    1ee3:	e8 09 04 00 00       	call   22f1 <get_byte_from_kb_buf>
    1ee8:	88 45 f7             	mov    %al,-0x9(%ebp)
    1eeb:	80 7d f7 e0          	cmpb   $0xe0,-0x9(%ebp)
    1eef:	75 6c                	jne    1f5d <keyboard_read+0x137>
    1ef1:	c7 05 cc ff 00 00 01 	movl   $0x1,0xffcc
    1ef8:	00 00 00 
    1efb:	e8 f1 03 00 00       	call   22f1 <get_byte_from_kb_buf>
    1f00:	88 45 f7             	mov    %al,-0x9(%ebp)
    1f03:	80 7d f7 37          	cmpb   $0x37,-0x9(%ebp)
    1f07:	75 54                	jne    1f5d <keyboard_read+0x137>
    1f09:	c7 45 ec 1d 01 00 00 	movl   $0x11d,-0x14(%ebp)
    1f10:	c7 45 f0 01 00 00 00 	movl   $0x1,-0x10(%ebp)
    1f17:	eb 44                	jmp    1f5d <keyboard_read+0x137>
    1f19:	80 7d f7 b7          	cmpb   $0xb7,-0x9(%ebp)
    1f1d:	75 3e                	jne    1f5d <keyboard_read+0x137>
    1f1f:	c7 05 cc ff 00 00 00 	movl   $0x0,0xffcc
    1f26:	00 00 00 
    1f29:	e8 c3 03 00 00       	call   22f1 <get_byte_from_kb_buf>
    1f2e:	88 45 f7             	mov    %al,-0x9(%ebp)
    1f31:	80 7d f7 e0          	cmpb   $0xe0,-0x9(%ebp)
    1f35:	75 26                	jne    1f5d <keyboard_read+0x137>
    1f37:	c7 05 cc ff 00 00 01 	movl   $0x1,0xffcc
    1f3e:	00 00 00 
    1f41:	e8 ab 03 00 00       	call   22f1 <get_byte_from_kb_buf>
    1f46:	88 45 f7             	mov    %al,-0x9(%ebp)
    1f49:	80 7d f7 aa          	cmpb   $0xaa,-0x9(%ebp)
    1f4d:	75 0e                	jne    1f5d <keyboard_read+0x137>
    1f4f:	c7 45 ec 1d 01 00 00 	movl   $0x11d,-0x14(%ebp)
    1f56:	c7 45 f0 00 00 00 00 	movl   $0x0,-0x10(%ebp)
    1f5d:	81 7d ec 1e 01 00 00 	cmpl   $0x11e,-0x14(%ebp)
    1f64:	0f 84 80 01 00 00    	je     20ea <keyboard_read+0x2c4>
    1f6a:	81 7d ec 1d 01 00 00 	cmpl   $0x11d,-0x14(%ebp)
    1f71:	0f 84 73 01 00 00    	je     20ea <keyboard_read+0x2c4>
    1f77:	0f b6 45 f7          	movzbl -0x9(%ebp),%eax
    1f7b:	f7 d0                	not    %eax
    1f7d:	c0 e8 07             	shr    $0x7,%al
    1f80:	0f b6 c0             	movzbl %al,%eax
    1f83:	89 45 f0             	mov    %eax,-0x10(%ebp)
    1f86:	0f b6 45 f7          	movzbl -0x9(%ebp),%eax
    1f8a:	83 e0 7f             	and    $0x7f,%eax
    1f8d:	89 c2                	mov    %eax,%edx
    1f8f:	89 d0                	mov    %edx,%eax
    1f91:	01 c0                	add    %eax,%eax
    1f93:	01 d0                	add    %edx,%eax
    1f95:	c1 e0 02             	shl    $0x2,%eax
    1f98:	05 20 f0 00 00       	add    $0xf020,%eax
    1f9d:	89 45 d8             	mov    %eax,-0x28(%ebp)
    1fa0:	c7 05 f4 ff 00 00 00 	movl   $0x0,0xfff4
    1fa7:	00 00 00 
    1faa:	a1 d0 ff 00 00       	mov    0xffd0,%eax
    1faf:	85 c0                	test   %eax,%eax
    1fb1:	75 09                	jne    1fbc <keyboard_read+0x196>
    1fb3:	a1 d4 ff 00 00       	mov    0xffd4,%eax
    1fb8:	85 c0                	test   %eax,%eax
    1fba:	74 07                	je     1fc3 <keyboard_read+0x19d>
    1fbc:	b8 01 00 00 00       	mov    $0x1,%eax
    1fc1:	eb 05                	jmp    1fc8 <keyboard_read+0x1a2>
    1fc3:	b8 00 00 00 00       	mov    $0x0,%eax
    1fc8:	89 45 e0             	mov    %eax,-0x20(%ebp)
    1fcb:	a1 e8 ff 00 00       	mov    0xffe8,%eax
    1fd0:	85 c0                	test   %eax,%eax
    1fd2:	74 21                	je     1ff5 <keyboard_read+0x1cf>
    1fd4:	8b 45 d8             	mov    -0x28(%ebp),%eax
    1fd7:	8b 00                	mov    (%eax),%eax
    1fd9:	83 f8 60             	cmp    $0x60,%eax
    1fdc:	76 17                	jbe    1ff5 <keyboard_read+0x1cf>
    1fde:	8b 45 d8             	mov    -0x28(%ebp),%eax
    1fe1:	8b 00                	mov    (%eax),%eax
    1fe3:	83 f8 7a             	cmp    $0x7a,%eax
    1fe6:	77 0d                	ja     1ff5 <keyboard_read+0x1cf>
    1fe8:	83 7d e0 00          	cmpl   $0x0,-0x20(%ebp)
    1fec:	0f 94 c0             	sete   %al
    1fef:	0f b6 c0             	movzbl %al,%eax
    1ff2:	89 45 e0             	mov    %eax,-0x20(%ebp)
    1ff5:	83 7d e0 00          	cmpl   $0x0,-0x20(%ebp)
    1ff9:	74 0a                	je     2005 <keyboard_read+0x1df>
    1ffb:	c7 05 f4 ff 00 00 01 	movl   $0x1,0xfff4
    2002:	00 00 00 
    2005:	a1 cc ff 00 00       	mov    0xffcc,%eax
    200a:	85 c0                	test   %eax,%eax
    200c:	74 0a                	je     2018 <keyboard_read+0x1f2>
    200e:	c7 05 f4 ff 00 00 02 	movl   $0x2,0xfff4
    2015:	00 00 00 
    2018:	a1 f4 ff 00 00       	mov    0xfff4,%eax
    201d:	8d 14 85 00 00 00 00 	lea    0x0(,%eax,4),%edx
    2024:	8b 45 d8             	mov    -0x28(%ebp),%eax
    2027:	01 d0                	add    %edx,%eax
    2029:	8b 00                	mov    (%eax),%eax
    202b:	89 45 ec             	mov    %eax,-0x14(%ebp)
    202e:	8b 45 ec             	mov    -0x14(%ebp),%eax
    2031:	2d 08 01 00 00       	sub    $0x108,%eax
    2036:	83 f8 08             	cmp    $0x8,%eax
    2039:	0f 87 ae 00 00 00    	ja     20ed <keyboard_read+0x2c7>
    203f:	8b 04 85 30 a9 00 00 	mov    0xa930(,%eax,4),%eax
    2046:	ff e0                	jmp    *%eax
    2048:	8b 45 f0             	mov    -0x10(%ebp),%eax
    204b:	a3 d0 ff 00 00       	mov    %eax,0xffd0
    2050:	e9 a2 00 00 00       	jmp    20f7 <keyboard_read+0x2d1>
    2055:	8b 45 f0             	mov    -0x10(%ebp),%eax
    2058:	a3 d4 ff 00 00       	mov    %eax,0xffd4
    205d:	e9 95 00 00 00       	jmp    20f7 <keyboard_read+0x2d1>
    2062:	8b 45 f0             	mov    -0x10(%ebp),%eax
    2065:	a3 e0 ff 00 00       	mov    %eax,0xffe0
    206a:	e9 88 00 00 00       	jmp    20f7 <keyboard_read+0x2d1>
    206f:	8b 45 f0             	mov    -0x10(%ebp),%eax
    2072:	a3 e4 ff 00 00       	mov    %eax,0xffe4
    2077:	eb 7e                	jmp    20f7 <keyboard_read+0x2d1>
    2079:	8b 45 f0             	mov    -0x10(%ebp),%eax
    207c:	a3 d8 ff 00 00       	mov    %eax,0xffd8
    2081:	eb 74                	jmp    20f7 <keyboard_read+0x2d1>
    2083:	8b 45 f0             	mov    -0x10(%ebp),%eax
    2086:	a3 d8 ff 00 00       	mov    %eax,0xffd8
    208b:	eb 6a                	jmp    20f7 <keyboard_read+0x2d1>
    208d:	83 7d f0 00          	cmpl   $0x0,-0x10(%ebp)
    2091:	74 5d                	je     20f0 <keyboard_read+0x2ca>
    2093:	a1 e8 ff 00 00       	mov    0xffe8,%eax
    2098:	85 c0                	test   %eax,%eax
    209a:	0f 94 c0             	sete   %al
    209d:	0f b6 c0             	movzbl %al,%eax
    20a0:	a3 e8 ff 00 00       	mov    %eax,0xffe8
    20a5:	e8 e7 02 00 00       	call   2391 <set_leds>
    20aa:	eb 44                	jmp    20f0 <keyboard_read+0x2ca>
    20ac:	83 7d f0 00          	cmpl   $0x0,-0x10(%ebp)
    20b0:	74 41                	je     20f3 <keyboard_read+0x2cd>
    20b2:	a1 ec ff 00 00       	mov    0xffec,%eax
    20b7:	85 c0                	test   %eax,%eax
    20b9:	0f 94 c0             	sete   %al
    20bc:	0f b6 c0             	movzbl %al,%eax
    20bf:	a3 ec ff 00 00       	mov    %eax,0xffec
    20c4:	e8 c8 02 00 00       	call   2391 <set_leds>
    20c9:	eb 28                	jmp    20f3 <keyboard_read+0x2cd>
    20cb:	83 7d f0 00          	cmpl   $0x0,-0x10(%ebp)
    20cf:	74 25                	je     20f6 <keyboard_read+0x2d0>
    20d1:	a1 f0 ff 00 00       	mov    0xfff0,%eax
    20d6:	85 c0                	test   %eax,%eax
    20d8:	0f 94 c0             	sete   %al
    20db:	0f b6 c0             	movzbl %al,%eax
    20de:	a3 f0 ff 00 00       	mov    %eax,0xfff0
    20e3:	e8 a9 02 00 00       	call   2391 <set_leds>
    20e8:	eb 0c                	jmp    20f6 <keyboard_read+0x2d0>
    20ea:	90                   	nop
    20eb:	eb 0a                	jmp    20f7 <keyboard_read+0x2d1>
    20ed:	90                   	nop
    20ee:	eb 07                	jmp    20f7 <keyboard_read+0x2d1>
    20f0:	90                   	nop
    20f1:	eb 04                	jmp    20f7 <keyboard_read+0x2d1>
    20f3:	90                   	nop
    20f4:	eb 01                	jmp    20f7 <keyboard_read+0x2d1>
    20f6:	90                   	nop
    20f7:	83 7d f0 00          	cmpl   $0x0,-0x10(%ebp)
    20fb:	0f 84 e0 01 00 00    	je     22e1 <keyboard_read+0x4bb>
    2101:	c7 45 dc 00 00 00 00 	movl   $0x0,-0x24(%ebp)
    2108:	81 7d ec 2b 01 00 00 	cmpl   $0x12b,-0x14(%ebp)
    210f:	0f 86 12 01 00 00    	jbe    2227 <keyboard_read+0x401>
    2115:	81 7d ec 3b 01 00 00 	cmpl   $0x13b,-0x14(%ebp)
    211c:	0f 87 05 01 00 00    	ja     2227 <keyboard_read+0x401>
    2122:	c7 45 dc 01 00 00 00 	movl   $0x1,-0x24(%ebp)
    2129:	8b 45 ec             	mov    -0x14(%ebp),%eax
    212c:	2d 2c 01 00 00       	sub    $0x12c,%eax
    2131:	83 f8 04             	cmp    $0x4,%eax
    2134:	77 45                	ja     217b <keyboard_read+0x355>
    2136:	8b 04 85 54 a9 00 00 	mov    0xa954(,%eax,4),%eax
    213d:	ff e0                	jmp    *%eax
    213f:	c7 45 ec 2f 00 00 00 	movl   $0x2f,-0x14(%ebp)
    2146:	e9 e0 00 00 00       	jmp    222b <keyboard_read+0x405>
    214b:	c7 45 ec 2a 00 00 00 	movl   $0x2a,-0x14(%ebp)
    2152:	e9 d4 00 00 00       	jmp    222b <keyboard_read+0x405>
    2157:	c7 45 ec 2d 00 00 00 	movl   $0x2d,-0x14(%ebp)
    215e:	e9 c8 00 00 00       	jmp    222b <keyboard_read+0x405>
    2163:	c7 45 ec 2b 00 00 00 	movl   $0x2b,-0x14(%ebp)
    216a:	e9 bc 00 00 00       	jmp    222b <keyboard_read+0x405>
    216f:	c7 45 ec 03 01 00 00 	movl   $0x103,-0x14(%ebp)
    2176:	e9 b0 00 00 00       	jmp    222b <keyboard_read+0x405>
    217b:	a1 ec ff 00 00       	mov    0xffec,%eax
    2180:	85 c0                	test   %eax,%eax
    2182:	74 30                	je     21b4 <keyboard_read+0x38e>
    2184:	81 7d ec 31 01 00 00 	cmpl   $0x131,-0x14(%ebp)
    218b:	76 15                	jbe    21a2 <keyboard_read+0x37c>
    218d:	81 7d ec 3b 01 00 00 	cmpl   $0x13b,-0x14(%ebp)
    2194:	77 0c                	ja     21a2 <keyboard_read+0x37c>
    2196:	81 6d ec 02 01 00 00 	subl   $0x102,-0x14(%ebp)
    219d:	e9 83 00 00 00       	jmp    2225 <keyboard_read+0x3ff>
    21a2:	81 7d ec 31 01 00 00 	cmpl   $0x131,-0x14(%ebp)
    21a9:	75 7f                	jne    222a <keyboard_read+0x404>
    21ab:	c7 45 ec 2e 00 00 00 	movl   $0x2e,-0x14(%ebp)
    21b2:	eb 76                	jmp    222a <keyboard_read+0x404>
    21b4:	8b 45 ec             	mov    -0x14(%ebp),%eax
    21b7:	2d 31 01 00 00       	sub    $0x131,%eax
    21bc:	83 f8 0a             	cmp    $0xa,%eax
    21bf:	77 63                	ja     2224 <keyboard_read+0x3fe>
    21c1:	8b 04 85 68 a9 00 00 	mov    0xa968(,%eax,4),%eax
    21c8:	ff e0                	jmp    *%eax
    21ca:	c7 45 ec 21 01 00 00 	movl   $0x121,-0x14(%ebp)
    21d1:	eb 52                	jmp    2225 <keyboard_read+0x3ff>
    21d3:	c7 45 ec 22 01 00 00 	movl   $0x122,-0x14(%ebp)
    21da:	eb 49                	jmp    2225 <keyboard_read+0x3ff>
    21dc:	c7 45 ec 23 01 00 00 	movl   $0x123,-0x14(%ebp)
    21e3:	eb 40                	jmp    2225 <keyboard_read+0x3ff>
    21e5:	c7 45 ec 24 01 00 00 	movl   $0x124,-0x14(%ebp)
    21ec:	eb 37                	jmp    2225 <keyboard_read+0x3ff>
    21ee:	c7 45 ec 1f 01 00 00 	movl   $0x11f,-0x14(%ebp)
    21f5:	eb 2e                	jmp    2225 <keyboard_read+0x3ff>
    21f7:	c7 45 ec 25 01 00 00 	movl   $0x125,-0x14(%ebp)
    21fe:	eb 25                	jmp    2225 <keyboard_read+0x3ff>
    2200:	c7 45 ec 26 01 00 00 	movl   $0x126,-0x14(%ebp)
    2207:	eb 1c                	jmp    2225 <keyboard_read+0x3ff>
    2209:	c7 45 ec 27 01 00 00 	movl   $0x127,-0x14(%ebp)
    2210:	eb 13                	jmp    2225 <keyboard_read+0x3ff>
    2212:	c7 45 ec 28 01 00 00 	movl   $0x128,-0x14(%ebp)
    2219:	eb 0a                	jmp    2225 <keyboard_read+0x3ff>
    221b:	c7 45 ec 20 01 00 00 	movl   $0x120,-0x14(%ebp)
    2222:	eb 01                	jmp    2225 <keyboard_read+0x3ff>
    2224:	90                   	nop
    2225:	eb 03                	jmp    222a <keyboard_read+0x404>
    2227:	90                   	nop
    2228:	eb 01                	jmp    222b <keyboard_read+0x405>
    222a:	90                   	nop
    222b:	a1 d0 ff 00 00       	mov    0xffd0,%eax
    2230:	85 c0                	test   %eax,%eax
    2232:	74 07                	je     223b <keyboard_read+0x415>
    2234:	b8 00 02 00 00       	mov    $0x200,%eax
    2239:	eb 05                	jmp    2240 <keyboard_read+0x41a>
    223b:	b8 00 00 00 00       	mov    $0x0,%eax
    2240:	09 45 ec             	or     %eax,-0x14(%ebp)
    2243:	a1 d4 ff 00 00       	mov    0xffd4,%eax
    2248:	85 c0                	test   %eax,%eax
    224a:	74 07                	je     2253 <keyboard_read+0x42d>
    224c:	b8 00 04 00 00       	mov    $0x400,%eax
    2251:	eb 05                	jmp    2258 <keyboard_read+0x432>
    2253:	b8 00 00 00 00       	mov    $0x0,%eax
    2258:	09 45 ec             	or     %eax,-0x14(%ebp)
    225b:	a1 e0 ff 00 00       	mov    0xffe0,%eax
    2260:	85 c0                	test   %eax,%eax
    2262:	74 07                	je     226b <keyboard_read+0x445>
    2264:	b8 00 08 00 00       	mov    $0x800,%eax
    2269:	eb 05                	jmp    2270 <keyboard_read+0x44a>
    226b:	b8 00 00 00 00       	mov    $0x0,%eax
    2270:	09 45 ec             	or     %eax,-0x14(%ebp)
    2273:	a1 e4 ff 00 00       	mov    0xffe4,%eax
    2278:	85 c0                	test   %eax,%eax
    227a:	74 07                	je     2283 <keyboard_read+0x45d>
    227c:	b8 00 10 00 00       	mov    $0x1000,%eax
    2281:	eb 05                	jmp    2288 <keyboard_read+0x462>
    2283:	b8 00 00 00 00       	mov    $0x0,%eax
    2288:	09 45 ec             	or     %eax,-0x14(%ebp)
    228b:	a1 d8 ff 00 00       	mov    0xffd8,%eax
    2290:	85 c0                	test   %eax,%eax
    2292:	74 07                	je     229b <keyboard_read+0x475>
    2294:	b8 00 20 00 00       	mov    $0x2000,%eax
    2299:	eb 05                	jmp    22a0 <keyboard_read+0x47a>
    229b:	b8 00 00 00 00       	mov    $0x0,%eax
    22a0:	09 45 ec             	or     %eax,-0x14(%ebp)
    22a3:	a1 dc ff 00 00       	mov    0xffdc,%eax
    22a8:	85 c0                	test   %eax,%eax
    22aa:	74 07                	je     22b3 <keyboard_read+0x48d>
    22ac:	b8 00 40 00 00       	mov    $0x4000,%eax
    22b1:	eb 05                	jmp    22b8 <keyboard_read+0x492>
    22b3:	b8 00 00 00 00       	mov    $0x0,%eax
    22b8:	09 45 ec             	or     %eax,-0x14(%ebp)
    22bb:	83 7d dc 00          	cmpl   $0x0,-0x24(%ebp)
    22bf:	74 07                	je     22c8 <keyboard_read+0x4a2>
    22c1:	b8 00 80 00 00       	mov    $0x8000,%eax
    22c6:	eb 05                	jmp    22cd <keyboard_read+0x4a7>
    22c8:	b8 00 00 00 00       	mov    $0x0,%eax
    22cd:	09 45 ec             	or     %eax,-0x14(%ebp)
    22d0:	83 ec 08             	sub    $0x8,%esp
    22d3:	ff 75 ec             	pushl  -0x14(%ebp)
    22d6:	ff 75 08             	pushl  0x8(%ebp)
    22d9:	e8 c1 02 00 00       	call   259f <in_process>
    22de:	83 c4 10             	add    $0x10,%esp
    22e1:	a1 a8 ff 00 00       	mov    0xffa8,%eax
    22e6:	85 c0                	test   %eax,%eax
    22e8:	0f 8f 4a fb ff ff    	jg     1e38 <keyboard_read+0x12>
    22ee:	90                   	nop
    22ef:	c9                   	leave  
    22f0:	c3                   	ret    

000022f1 <get_byte_from_kb_buf>:
    22f1:	55                   	push   %ebp
    22f2:	89 e5                	mov    %esp,%ebp
    22f4:	83 ec 18             	sub    $0x18,%esp
    22f7:	90                   	nop
    22f8:	a1 a8 ff 00 00       	mov    0xffa8,%eax
    22fd:	85 c0                	test   %eax,%eax
    22ff:	7e f7                	jle    22f8 <get_byte_from_kb_buf+0x7>
    2301:	e8 27 44 00 00       	call   672d <disable_int>
    2306:	a1 a4 ff 00 00       	mov    0xffa4,%eax
    230b:	0f b6 00             	movzbl (%eax),%eax
    230e:	88 45 f7             	mov    %al,-0x9(%ebp)
    2311:	a1 a4 ff 00 00       	mov    0xffa4,%eax
    2316:	83 c0 01             	add    $0x1,%eax
    2319:	a3 a4 ff 00 00       	mov    %eax,0xffa4
    231e:	a1 a4 ff 00 00       	mov    0xffa4,%eax
    2323:	ba cc ff 00 00       	mov    $0xffcc,%edx
    2328:	39 d0                	cmp    %edx,%eax
    232a:	75 0a                	jne    2336 <get_byte_from_kb_buf+0x45>
    232c:	c7 05 a4 ff 00 00 ac 	movl   $0xffac,0xffa4
    2333:	ff 00 00 
    2336:	a1 a8 ff 00 00       	mov    0xffa8,%eax
    233b:	83 e8 01             	sub    $0x1,%eax
    233e:	a3 a8 ff 00 00       	mov    %eax,0xffa8
    2343:	e8 e7 43 00 00       	call   672f <enable_int>
    2348:	0f b6 45 f7          	movzbl -0x9(%ebp),%eax
    234c:	c9                   	leave  
    234d:	c3                   	ret    

0000234e <kb_wait>:
    234e:	55                   	push   %ebp
    234f:	89 e5                	mov    %esp,%ebp
    2351:	83 ec 18             	sub    $0x18,%esp
    2354:	83 ec 0c             	sub    $0xc,%esp
    2357:	6a 64                	push   $0x64
    2359:	e8 4b 43 00 00       	call   66a9 <in_byte>
    235e:	83 c4 10             	add    $0x10,%esp
    2361:	88 45 f7             	mov    %al,-0x9(%ebp)
    2364:	0f b6 45 f7          	movzbl -0x9(%ebp),%eax
    2368:	83 e0 02             	and    $0x2,%eax
    236b:	85 c0                	test   %eax,%eax
    236d:	75 e5                	jne    2354 <kb_wait+0x6>
    236f:	90                   	nop
    2370:	c9                   	leave  
    2371:	c3                   	ret    

00002372 <kb_ack>:
    2372:	55                   	push   %ebp
    2373:	89 e5                	mov    %esp,%ebp
    2375:	83 ec 18             	sub    $0x18,%esp
    2378:	83 ec 0c             	sub    $0xc,%esp
    237b:	6a 60                	push   $0x60
    237d:	e8 27 43 00 00       	call   66a9 <in_byte>
    2382:	83 c4 10             	add    $0x10,%esp
    2385:	88 45 f7             	mov    %al,-0x9(%ebp)
    2388:	80 7d f7 fa          	cmpb   $0xfa,-0x9(%ebp)
    238c:	75 ea                	jne    2378 <kb_ack+0x6>
    238e:	90                   	nop
    238f:	c9                   	leave  
    2390:	c3                   	ret    

00002391 <set_leds>:
    2391:	55                   	push   %ebp
    2392:	89 e5                	mov    %esp,%ebp
    2394:	83 ec 18             	sub    $0x18,%esp
    2397:	a1 e8 ff 00 00       	mov    0xffe8,%eax
    239c:	c1 e0 02             	shl    $0x2,%eax
    239f:	89 c2                	mov    %eax,%edx
    23a1:	a1 ec ff 00 00       	mov    0xffec,%eax
    23a6:	01 c0                	add    %eax,%eax
    23a8:	09 c2                	or     %eax,%edx
    23aa:	a1 f0 ff 00 00       	mov    0xfff0,%eax
    23af:	09 d0                	or     %edx,%eax
    23b1:	88 45 f7             	mov    %al,-0x9(%ebp)
    23b4:	e8 95 ff ff ff       	call   234e <kb_wait>
    23b9:	83 ec 08             	sub    $0x8,%esp
    23bc:	68 ed 00 00 00       	push   $0xed
    23c1:	6a 60                	push   $0x60
    23c3:	e8 d5 42 00 00       	call   669d <out_byte>
    23c8:	83 c4 10             	add    $0x10,%esp
    23cb:	e8 a2 ff ff ff       	call   2372 <kb_ack>
    23d0:	e8 79 ff ff ff       	call   234e <kb_wait>
    23d5:	0f b6 45 f7          	movzbl -0x9(%ebp),%eax
    23d9:	83 ec 08             	sub    $0x8,%esp
    23dc:	50                   	push   %eax
    23dd:	6a 60                	push   $0x60
    23df:	e8 b9 42 00 00       	call   669d <out_byte>
    23e4:	83 c4 10             	add    $0x10,%esp
    23e7:	e8 86 ff ff ff       	call   2372 <kb_ack>
    23ec:	90                   	nop
    23ed:	c9                   	leave  
    23ee:	c3                   	ret    

000023ef <task_tty>:
    23ef:	55                   	push   %ebp
    23f0:	89 e5                	mov    %esp,%ebp
    23f2:	83 ec 48             	sub    $0x48,%esp
    23f5:	e8 7d f9 ff ff       	call   1d77 <init_keyboard>
    23fa:	c7 45 f4 e0 97 04 00 	movl   $0x497e0,-0xc(%ebp)
    2401:	eb 15                	jmp    2418 <task_tty+0x29>
    2403:	83 ec 0c             	sub    $0xc,%esp
    2406:	ff 75 f4             	pushl  -0xc(%ebp)
    2409:	e8 4f 01 00 00       	call   255d <init_tty>
    240e:	83 c4 10             	add    $0x10,%esp
    2411:	81 45 f4 24 04 00 00 	addl   $0x424,-0xc(%ebp)
    2418:	b8 4c a4 04 00       	mov    $0x4a44c,%eax
    241d:	39 45 f4             	cmp    %eax,-0xc(%ebp)
    2420:	72 e1                	jb     2403 <task_tty+0x14>
    2422:	83 ec 0c             	sub    $0xc,%esp
    2425:	6a 00                	push   $0x0
    2427:	e8 c2 0e 00 00       	call   32ee <select_console>
    242c:	83 c4 10             	add    $0x10,%esp
    242f:	c7 45 f4 e0 97 04 00 	movl   $0x497e0,-0xc(%ebp)
    2436:	eb 30                	jmp    2468 <task_tty+0x79>
    2438:	83 ec 0c             	sub    $0xc,%esp
    243b:	ff 75 f4             	pushl  -0xc(%ebp)
    243e:	e8 e0 02 00 00       	call   2723 <tty_dev_read>
    2443:	83 c4 10             	add    $0x10,%esp
    2446:	83 ec 0c             	sub    $0xc,%esp
    2449:	ff 75 f4             	pushl  -0xc(%ebp)
    244c:	e8 02 03 00 00       	call   2753 <tty_dev_write>
    2451:	83 c4 10             	add    $0x10,%esp
    2454:	8b 45 f4             	mov    -0xc(%ebp),%eax
    2457:	8b 80 08 04 00 00    	mov    0x408(%eax),%eax
    245d:	85 c0                	test   %eax,%eax
    245f:	75 d7                	jne    2438 <task_tty+0x49>
    2461:	81 45 f4 24 04 00 00 	addl   $0x424,-0xc(%ebp)
    2468:	b8 4c a4 04 00       	mov    $0x4a44c,%eax
    246d:	39 45 f4             	cmp    %eax,-0xc(%ebp)
    2470:	72 c6                	jb     2438 <task_tty+0x49>
    2472:	83 ec 04             	sub    $0x4,%esp
    2475:	8d 45 bc             	lea    -0x44(%ebp),%eax
    2478:	50                   	push   %eax
    2479:	6a 11                	push   $0x11
    247b:	6a 02                	push   $0x2
    247d:	e8 ed 19 00 00       	call   3e6f <send_recv>
    2482:	83 c4 10             	add    $0x10,%esp
    2485:	8b 45 bc             	mov    -0x44(%ebp),%eax
    2488:	89 45 f0             	mov    %eax,-0x10(%ebp)
    248b:	83 7d f0 00          	cmpl   $0x0,-0x10(%ebp)
    248f:	75 19                	jne    24aa <task_tty+0xbb>
    2491:	6a 5e                	push   $0x5e
    2493:	68 94 a9 00 00       	push   $0xa994
    2498:	68 94 a9 00 00       	push   $0xa994
    249d:	68 a1 a9 00 00       	push   $0xa9a1
    24a2:	e8 0c 46 00 00       	call   6ab3 <assertion_failure>
    24a7:	83 c4 10             	add    $0x10,%esp
    24aa:	8b 45 d0             	mov    -0x30(%ebp),%eax
    24ad:	69 c0 24 04 00 00    	imul   $0x424,%eax,%eax
    24b3:	05 e0 97 04 00       	add    $0x497e0,%eax
    24b8:	89 45 ec             	mov    %eax,-0x14(%ebp)
    24bb:	8b 45 c0             	mov    -0x40(%ebp),%eax
    24be:	3d e9 03 00 00       	cmp    $0x3e9,%eax
    24c3:	74 1e                	je     24e3 <task_tty+0xf4>
    24c5:	3d e9 03 00 00       	cmp    $0x3e9,%eax
    24ca:	7f 07                	jg     24d3 <task_tty+0xe4>
    24cc:	83 f8 01             	cmp    $0x1,%eax
    24cf:	74 66                	je     2537 <task_tty+0x148>
    24d1:	eb 70                	jmp    2543 <task_tty+0x154>
    24d3:	3d eb 03 00 00       	cmp    $0x3eb,%eax
    24d8:	74 35                	je     250f <task_tty+0x120>
    24da:	3d ec 03 00 00       	cmp    $0x3ec,%eax
    24df:	74 42                	je     2523 <task_tty+0x134>
    24e1:	eb 60                	jmp    2543 <task_tty+0x154>
    24e3:	83 ec 0c             	sub    $0xc,%esp
    24e6:	8d 45 bc             	lea    -0x44(%ebp),%eax
    24e9:	50                   	push   %eax
    24ea:	e8 e8 1a 00 00       	call   3fd7 <reset_msg>
    24ef:	83 c4 10             	add    $0x10,%esp
    24f2:	c7 45 c0 0d 00 00 00 	movl   $0xd,-0x40(%ebp)
    24f9:	83 ec 04             	sub    $0x4,%esp
    24fc:	8d 45 bc             	lea    -0x44(%ebp),%eax
    24ff:	50                   	push   %eax
    2500:	ff 75 f0             	pushl  -0x10(%ebp)
    2503:	6a 01                	push   $0x1
    2505:	e8 65 19 00 00       	call   3e6f <send_recv>
    250a:	83 c4 10             	add    $0x10,%esp
    250d:	eb 49                	jmp    2558 <task_tty+0x169>
    250f:	83 ec 08             	sub    $0x8,%esp
    2512:	8d 45 bc             	lea    -0x44(%ebp),%eax
    2515:	50                   	push   %eax
    2516:	ff 75 ec             	pushl  -0x14(%ebp)
    2519:	e8 28 04 00 00       	call   2946 <tty_do_read>
    251e:	83 c4 10             	add    $0x10,%esp
    2521:	eb 35                	jmp    2558 <task_tty+0x169>
    2523:	83 ec 08             	sub    $0x8,%esp
    2526:	8d 45 bc             	lea    -0x44(%ebp),%eax
    2529:	50                   	push   %eax
    252a:	ff 75 ec             	pushl  -0x14(%ebp)
    252d:	e8 b0 04 00 00       	call   29e2 <tty_do_write>
    2532:	83 c4 10             	add    $0x10,%esp
    2535:	eb 21                	jmp    2558 <task_tty+0x169>
    2537:	c7 05 28 a8 04 00 00 	movl   $0x0,0x4a828
    253e:	00 00 00 
    2541:	eb 15                	jmp    2558 <task_tty+0x169>
    2543:	83 ec 08             	sub    $0x8,%esp
    2546:	8d 45 bc             	lea    -0x44(%ebp),%eax
    2549:	50                   	push   %eax
    254a:	68 b1 a9 00 00       	push   $0xa9b1
    254f:	e8 65 2d 00 00       	call   52b9 <dump_msg>
    2554:	83 c4 10             	add    $0x10,%esp
    2557:	90                   	nop
    2558:	e9 d2 fe ff ff       	jmp    242f <task_tty+0x40>

0000255d <init_tty>:
    255d:	55                   	push   %ebp
    255e:	89 e5                	mov    %esp,%ebp
    2560:	83 ec 08             	sub    $0x8,%esp
    2563:	8b 45 08             	mov    0x8(%ebp),%eax
    2566:	c7 80 08 04 00 00 00 	movl   $0x0,0x408(%eax)
    256d:	00 00 00 
    2570:	8b 55 08             	mov    0x8(%ebp),%edx
    2573:	8b 45 08             	mov    0x8(%ebp),%eax
    2576:	89 90 04 04 00 00    	mov    %edx,0x404(%eax)
    257c:	8b 45 08             	mov    0x8(%ebp),%eax
    257f:	8b 90 04 04 00 00    	mov    0x404(%eax),%edx
    2585:	8b 45 08             	mov    0x8(%ebp),%eax
    2588:	89 90 00 04 00 00    	mov    %edx,0x400(%eax)
    258e:	83 ec 0c             	sub    $0xc,%esp
    2591:	ff 75 08             	pushl  0x8(%ebp)
    2594:	e8 11 08 00 00       	call   2daa <init_screen>
    2599:	83 c4 10             	add    $0x10,%esp
    259c:	90                   	nop
    259d:	c9                   	leave  
    259e:	c3                   	ret    

0000259f <in_process>:
    259f:	55                   	push   %ebp
    25a0:	89 e5                	mov    %esp,%ebp
    25a2:	83 ec 18             	sub    $0x18,%esp
    25a5:	8b 45 0c             	mov    0xc(%ebp),%eax
    25a8:	25 00 01 00 00       	and    $0x100,%eax
    25ad:	85 c0                	test   %eax,%eax
    25af:	75 16                	jne    25c7 <in_process+0x28>
    25b1:	83 ec 08             	sub    $0x8,%esp
    25b4:	ff 75 0c             	pushl  0xc(%ebp)
    25b7:	ff 75 08             	pushl  0x8(%ebp)
    25ba:	e8 f4 00 00 00       	call   26b3 <put_key>
    25bf:	83 c4 10             	add    $0x10,%esp
    25c2:	e9 e9 00 00 00       	jmp    26b0 <in_process+0x111>
    25c7:	8b 45 0c             	mov    0xc(%ebp),%eax
    25ca:	25 ff 01 00 00       	and    $0x1ff,%eax
    25cf:	89 45 f4             	mov    %eax,-0xc(%ebp)
    25d2:	8b 45 f4             	mov    -0xc(%ebp),%eax
    25d5:	2d 03 01 00 00       	sub    $0x103,%eax
    25da:	83 f8 23             	cmp    $0x23,%eax
    25dd:	0f 87 c3 00 00 00    	ja     26a6 <in_process+0x107>
    25e3:	8b 04 85 c4 a9 00 00 	mov    0xa9c4(,%eax,4),%eax
    25ea:	ff e0                	jmp    *%eax
    25ec:	83 ec 08             	sub    $0x8,%esp
    25ef:	6a 0a                	push   $0xa
    25f1:	ff 75 08             	pushl  0x8(%ebp)
    25f4:	e8 ba 00 00 00       	call   26b3 <put_key>
    25f9:	83 c4 10             	add    $0x10,%esp
    25fc:	e9 af 00 00 00       	jmp    26b0 <in_process+0x111>
    2601:	83 ec 08             	sub    $0x8,%esp
    2604:	6a 08                	push   $0x8
    2606:	ff 75 08             	pushl  0x8(%ebp)
    2609:	e8 a5 00 00 00       	call   26b3 <put_key>
    260e:	83 c4 10             	add    $0x10,%esp
    2611:	e9 9a 00 00 00       	jmp    26b0 <in_process+0x111>
    2616:	8b 45 0c             	mov    0xc(%ebp),%eax
    2619:	25 00 02 00 00       	and    $0x200,%eax
    261e:	85 c0                	test   %eax,%eax
    2620:	75 0c                	jne    262e <in_process+0x8f>
    2622:	8b 45 0c             	mov    0xc(%ebp),%eax
    2625:	25 00 04 00 00       	and    $0x400,%eax
    262a:	85 c0                	test   %eax,%eax
    262c:	74 7b                	je     26a9 <in_process+0x10a>
    262e:	8b 45 08             	mov    0x8(%ebp),%eax
    2631:	8b 80 20 04 00 00    	mov    0x420(%eax),%eax
    2637:	83 ec 08             	sub    $0x8,%esp
    263a:	6a ff                	push   $0xffffffff
    263c:	50                   	push   %eax
    263d:	e8 ec 0c 00 00       	call   332e <scroll_screen>
    2642:	83 c4 10             	add    $0x10,%esp
    2645:	eb 62                	jmp    26a9 <in_process+0x10a>
    2647:	8b 45 0c             	mov    0xc(%ebp),%eax
    264a:	25 00 02 00 00       	and    $0x200,%eax
    264f:	85 c0                	test   %eax,%eax
    2651:	75 0c                	jne    265f <in_process+0xc0>
    2653:	8b 45 0c             	mov    0xc(%ebp),%eax
    2656:	25 00 04 00 00       	and    $0x400,%eax
    265b:	85 c0                	test   %eax,%eax
    265d:	74 4d                	je     26ac <in_process+0x10d>
    265f:	8b 45 08             	mov    0x8(%ebp),%eax
    2662:	8b 80 20 04 00 00    	mov    0x420(%eax),%eax
    2668:	83 ec 08             	sub    $0x8,%esp
    266b:	6a 01                	push   $0x1
    266d:	50                   	push   %eax
    266e:	e8 bb 0c 00 00       	call   332e <scroll_screen>
    2673:	83 c4 10             	add    $0x10,%esp
    2676:	eb 34                	jmp    26ac <in_process+0x10d>
    2678:	8b 45 0c             	mov    0xc(%ebp),%eax
    267b:	25 00 20 00 00       	and    $0x2000,%eax
    2680:	85 c0                	test   %eax,%eax
    2682:	75 0c                	jne    2690 <in_process+0xf1>
    2684:	8b 45 0c             	mov    0xc(%ebp),%eax
    2687:	25 00 40 00 00       	and    $0x4000,%eax
    268c:	85 c0                	test   %eax,%eax
    268e:	74 1f                	je     26af <in_process+0x110>
    2690:	8b 45 f4             	mov    -0xc(%ebp),%eax
    2693:	2d 11 01 00 00       	sub    $0x111,%eax
    2698:	83 ec 0c             	sub    $0xc,%esp
    269b:	50                   	push   %eax
    269c:	e8 4d 0c 00 00       	call   32ee <select_console>
    26a1:	83 c4 10             	add    $0x10,%esp
    26a4:	eb 09                	jmp    26af <in_process+0x110>
    26a6:	90                   	nop
    26a7:	eb 07                	jmp    26b0 <in_process+0x111>
    26a9:	90                   	nop
    26aa:	eb 04                	jmp    26b0 <in_process+0x111>
    26ac:	90                   	nop
    26ad:	eb 01                	jmp    26b0 <in_process+0x111>
    26af:	90                   	nop
    26b0:	90                   	nop
    26b1:	c9                   	leave  
    26b2:	c3                   	ret    

000026b3 <put_key>:
    26b3:	55                   	push   %ebp
    26b4:	89 e5                	mov    %esp,%ebp
    26b6:	8b 45 08             	mov    0x8(%ebp),%eax
    26b9:	8b 80 08 04 00 00    	mov    0x408(%eax),%eax
    26bf:	3d ff 00 00 00       	cmp    $0xff,%eax
    26c4:	7f 5a                	jg     2720 <put_key+0x6d>
    26c6:	8b 45 08             	mov    0x8(%ebp),%eax
    26c9:	8b 80 00 04 00 00    	mov    0x400(%eax),%eax
    26cf:	8b 55 0c             	mov    0xc(%ebp),%edx
    26d2:	89 10                	mov    %edx,(%eax)
    26d4:	8b 45 08             	mov    0x8(%ebp),%eax
    26d7:	8b 80 00 04 00 00    	mov    0x400(%eax),%eax
    26dd:	8d 50 04             	lea    0x4(%eax),%edx
    26e0:	8b 45 08             	mov    0x8(%ebp),%eax
    26e3:	89 90 00 04 00 00    	mov    %edx,0x400(%eax)
    26e9:	8b 45 08             	mov    0x8(%ebp),%eax
    26ec:	8b 80 00 04 00 00    	mov    0x400(%eax),%eax
    26f2:	8b 55 08             	mov    0x8(%ebp),%edx
    26f5:	81 c2 00 04 00 00    	add    $0x400,%edx
    26fb:	39 d0                	cmp    %edx,%eax
    26fd:	75 0c                	jne    270b <put_key+0x58>
    26ff:	8b 55 08             	mov    0x8(%ebp),%edx
    2702:	8b 45 08             	mov    0x8(%ebp),%eax
    2705:	89 90 00 04 00 00    	mov    %edx,0x400(%eax)
    270b:	8b 45 08             	mov    0x8(%ebp),%eax
    270e:	8b 80 08 04 00 00    	mov    0x408(%eax),%eax
    2714:	8d 50 01             	lea    0x1(%eax),%edx
    2717:	8b 45 08             	mov    0x8(%ebp),%eax
    271a:	89 90 08 04 00 00    	mov    %edx,0x408(%eax)
    2720:	90                   	nop
    2721:	5d                   	pop    %ebp
    2722:	c3                   	ret    

00002723 <tty_dev_read>:
    2723:	55                   	push   %ebp
    2724:	89 e5                	mov    %esp,%ebp
    2726:	83 ec 08             	sub    $0x8,%esp
    2729:	8b 45 08             	mov    0x8(%ebp),%eax
    272c:	8b 80 20 04 00 00    	mov    0x420(%eax),%eax
    2732:	83 ec 0c             	sub    $0xc,%esp
    2735:	50                   	push   %eax
    2736:	e8 c0 0a 00 00       	call   31fb <is_current_console>
    273b:	83 c4 10             	add    $0x10,%esp
    273e:	85 c0                	test   %eax,%eax
    2740:	74 0e                	je     2750 <tty_dev_read+0x2d>
    2742:	83 ec 0c             	sub    $0xc,%esp
    2745:	ff 75 08             	pushl  0x8(%ebp)
    2748:	e8 d9 f6 ff ff       	call   1e26 <keyboard_read>
    274d:	83 c4 10             	add    $0x10,%esp
    2750:	90                   	nop
    2751:	c9                   	leave  
    2752:	c3                   	ret    

00002753 <tty_dev_write>:
    2753:	55                   	push   %ebp
    2754:	89 e5                	mov    %esp,%ebp
    2756:	83 ec 48             	sub    $0x48,%esp
    2759:	e9 d4 01 00 00       	jmp    2932 <tty_dev_write+0x1df>
    275e:	8b 45 08             	mov    0x8(%ebp),%eax
    2761:	8b 80 04 04 00 00    	mov    0x404(%eax),%eax
    2767:	8b 00                	mov    (%eax),%eax
    2769:	88 45 f3             	mov    %al,-0xd(%ebp)
    276c:	8b 45 08             	mov    0x8(%ebp),%eax
    276f:	8b 80 04 04 00 00    	mov    0x404(%eax),%eax
    2775:	8d 50 04             	lea    0x4(%eax),%edx
    2778:	8b 45 08             	mov    0x8(%ebp),%eax
    277b:	89 90 04 04 00 00    	mov    %edx,0x404(%eax)
    2781:	8b 45 08             	mov    0x8(%ebp),%eax
    2784:	8b 80 04 04 00 00    	mov    0x404(%eax),%eax
    278a:	8b 55 08             	mov    0x8(%ebp),%edx
    278d:	81 c2 00 04 00 00    	add    $0x400,%edx
    2793:	39 d0                	cmp    %edx,%eax
    2795:	75 0c                	jne    27a3 <tty_dev_write+0x50>
    2797:	8b 55 08             	mov    0x8(%ebp),%edx
    279a:	8b 45 08             	mov    0x8(%ebp),%eax
    279d:	89 90 04 04 00 00    	mov    %edx,0x404(%eax)
    27a3:	8b 45 08             	mov    0x8(%ebp),%eax
    27a6:	8b 80 08 04 00 00    	mov    0x408(%eax),%eax
    27ac:	8d 50 ff             	lea    -0x1(%eax),%edx
    27af:	8b 45 08             	mov    0x8(%ebp),%eax
    27b2:	89 90 08 04 00 00    	mov    %edx,0x408(%eax)
    27b8:	8b 45 08             	mov    0x8(%ebp),%eax
    27bb:	8b 80 18 04 00 00    	mov    0x418(%eax),%eax
    27c1:	85 c0                	test   %eax,%eax
    27c3:	0f 84 69 01 00 00    	je     2932 <tty_dev_write+0x1df>
    27c9:	0f b6 45 f3          	movzbl -0xd(%ebp),%eax
    27cd:	3c 1f                	cmp    $0x1f,%al
    27cf:	0f 8e 8e 00 00 00    	jle    2863 <tty_dev_write+0x110>
    27d5:	0f b6 45 f3          	movzbl -0xd(%ebp),%eax
    27d9:	3c 7f                	cmp    $0x7f,%al
    27db:	0f 84 82 00 00 00    	je     2863 <tty_dev_write+0x110>
    27e1:	0f b6 45 f3          	movzbl -0xd(%ebp),%eax
    27e5:	0f be d0             	movsbl %al,%edx
    27e8:	8b 45 08             	mov    0x8(%ebp),%eax
    27eb:	8b 80 20 04 00 00    	mov    0x420(%eax),%eax
    27f1:	83 ec 08             	sub    $0x8,%esp
    27f4:	52                   	push   %edx
    27f5:	50                   	push   %eax
    27f6:	e8 23 07 00 00       	call   2f1e <out_char>
    27fb:	83 c4 10             	add    $0x10,%esp
    27fe:	8b 45 08             	mov    0x8(%ebp),%eax
    2801:	8b 90 14 04 00 00    	mov    0x414(%eax),%edx
    2807:	8b 45 08             	mov    0x8(%ebp),%eax
    280a:	8b 80 1c 04 00 00    	mov    0x41c(%eax),%eax
    2810:	01 d0                	add    %edx,%eax
    2812:	89 45 f4             	mov    %eax,-0xc(%ebp)
    2815:	83 ec 08             	sub    $0x8,%esp
    2818:	8d 45 f3             	lea    -0xd(%ebp),%eax
    281b:	50                   	push   %eax
    281c:	6a 00                	push   $0x0
    281e:	e8 53 17 00 00       	call   3f76 <va2la>
    2823:	83 c4 10             	add    $0x10,%esp
    2826:	83 ec 04             	sub    $0x4,%esp
    2829:	6a 01                	push   $0x1
    282b:	50                   	push   %eax
    282c:	ff 75 f4             	pushl  -0xc(%ebp)
    282f:	e8 ac 40 00 00       	call   68e0 <memcpy>
    2834:	83 c4 10             	add    $0x10,%esp
    2837:	8b 45 08             	mov    0x8(%ebp),%eax
    283a:	8b 80 1c 04 00 00    	mov    0x41c(%eax),%eax
    2840:	8d 50 01             	lea    0x1(%eax),%edx
    2843:	8b 45 08             	mov    0x8(%ebp),%eax
    2846:	89 90 1c 04 00 00    	mov    %edx,0x41c(%eax)
    284c:	8b 45 08             	mov    0x8(%ebp),%eax
    284f:	8b 80 18 04 00 00    	mov    0x418(%eax),%eax
    2855:	8d 50 ff             	lea    -0x1(%eax),%edx
    2858:	8b 45 08             	mov    0x8(%ebp),%eax
    285b:	89 90 18 04 00 00    	mov    %edx,0x418(%eax)
    2861:	eb 5c                	jmp    28bf <tty_dev_write+0x16c>
    2863:	0f b6 45 f3          	movzbl -0xd(%ebp),%eax
    2867:	3c 08                	cmp    $0x8,%al
    2869:	75 54                	jne    28bf <tty_dev_write+0x16c>
    286b:	8b 45 08             	mov    0x8(%ebp),%eax
    286e:	8b 80 1c 04 00 00    	mov    0x41c(%eax),%eax
    2874:	85 c0                	test   %eax,%eax
    2876:	74 47                	je     28bf <tty_dev_write+0x16c>
    2878:	0f b6 45 f3          	movzbl -0xd(%ebp),%eax
    287c:	0f be d0             	movsbl %al,%edx
    287f:	8b 45 08             	mov    0x8(%ebp),%eax
    2882:	8b 80 20 04 00 00    	mov    0x420(%eax),%eax
    2888:	83 ec 08             	sub    $0x8,%esp
    288b:	52                   	push   %edx
    288c:	50                   	push   %eax
    288d:	e8 8c 06 00 00       	call   2f1e <out_char>
    2892:	83 c4 10             	add    $0x10,%esp
    2895:	8b 45 08             	mov    0x8(%ebp),%eax
    2898:	8b 80 1c 04 00 00    	mov    0x41c(%eax),%eax
    289e:	8d 50 ff             	lea    -0x1(%eax),%edx
    28a1:	8b 45 08             	mov    0x8(%ebp),%eax
    28a4:	89 90 1c 04 00 00    	mov    %edx,0x41c(%eax)
    28aa:	8b 45 08             	mov    0x8(%ebp),%eax
    28ad:	8b 80 18 04 00 00    	mov    0x418(%eax),%eax
    28b3:	8d 50 01             	lea    0x1(%eax),%edx
    28b6:	8b 45 08             	mov    0x8(%ebp),%eax
    28b9:	89 90 18 04 00 00    	mov    %edx,0x418(%eax)
    28bf:	0f b6 45 f3          	movzbl -0xd(%ebp),%eax
    28c3:	3c 0a                	cmp    $0xa,%al
    28c5:	74 0d                	je     28d4 <tty_dev_write+0x181>
    28c7:	8b 45 08             	mov    0x8(%ebp),%eax
    28ca:	8b 80 18 04 00 00    	mov    0x418(%eax),%eax
    28d0:	85 c0                	test   %eax,%eax
    28d2:	75 5e                	jne    2932 <tty_dev_write+0x1df>
    28d4:	8b 45 08             	mov    0x8(%ebp),%eax
    28d7:	8b 80 20 04 00 00    	mov    0x420(%eax),%eax
    28dd:	83 ec 08             	sub    $0x8,%esp
    28e0:	6a 0a                	push   $0xa
    28e2:	50                   	push   %eax
    28e3:	e8 36 06 00 00       	call   2f1e <out_char>
    28e8:	83 c4 10             	add    $0x10,%esp
    28eb:	c7 45 c4 0c 00 00 00 	movl   $0xc,-0x3c(%ebp)
    28f2:	8b 45 08             	mov    0x8(%ebp),%eax
    28f5:	8b 80 10 04 00 00    	mov    0x410(%eax),%eax
    28fb:	89 45 d0             	mov    %eax,-0x30(%ebp)
    28fe:	8b 45 08             	mov    0x8(%ebp),%eax
    2901:	8b 80 1c 04 00 00    	mov    0x41c(%eax),%eax
    2907:	89 45 cc             	mov    %eax,-0x34(%ebp)
    290a:	8b 45 08             	mov    0x8(%ebp),%eax
    290d:	8b 80 0c 04 00 00    	mov    0x40c(%eax),%eax
    2913:	83 ec 04             	sub    $0x4,%esp
    2916:	8d 55 c0             	lea    -0x40(%ebp),%edx
    2919:	52                   	push   %edx
    291a:	50                   	push   %eax
    291b:	6a 01                	push   $0x1
    291d:	e8 4d 15 00 00       	call   3e6f <send_recv>
    2922:	83 c4 10             	add    $0x10,%esp
    2925:	8b 45 08             	mov    0x8(%ebp),%eax
    2928:	c7 80 18 04 00 00 00 	movl   $0x0,0x418(%eax)
    292f:	00 00 00 
    2932:	8b 45 08             	mov    0x8(%ebp),%eax
    2935:	8b 80 08 04 00 00    	mov    0x408(%eax),%eax
    293b:	85 c0                	test   %eax,%eax
    293d:	0f 85 1b fe ff ff    	jne    275e <tty_dev_write+0xb>
    2943:	90                   	nop
    2944:	c9                   	leave  
    2945:	c3                   	ret    

00002946 <tty_do_read>:
    2946:	55                   	push   %ebp
    2947:	89 e5                	mov    %esp,%ebp
    2949:	83 ec 08             	sub    $0x8,%esp
    294c:	8b 45 0c             	mov    0xc(%ebp),%eax
    294f:	8b 10                	mov    (%eax),%edx
    2951:	8b 45 08             	mov    0x8(%ebp),%eax
    2954:	89 90 0c 04 00 00    	mov    %edx,0x40c(%eax)
    295a:	8b 45 0c             	mov    0xc(%ebp),%eax
    295d:	8b 50 10             	mov    0x10(%eax),%edx
    2960:	8b 45 08             	mov    0x8(%ebp),%eax
    2963:	89 90 10 04 00 00    	mov    %edx,0x410(%eax)
    2969:	8b 45 0c             	mov    0xc(%ebp),%eax
    296c:	8b 50 2c             	mov    0x2c(%eax),%edx
    296f:	8b 45 08             	mov    0x8(%ebp),%eax
    2972:	8b 80 10 04 00 00    	mov    0x410(%eax),%eax
    2978:	83 ec 08             	sub    $0x8,%esp
    297b:	52                   	push   %edx
    297c:	50                   	push   %eax
    297d:	e8 f4 15 00 00       	call   3f76 <va2la>
    2982:	83 c4 10             	add    $0x10,%esp
    2985:	89 c2                	mov    %eax,%edx
    2987:	8b 45 08             	mov    0x8(%ebp),%eax
    298a:	89 90 14 04 00 00    	mov    %edx,0x414(%eax)
    2990:	8b 45 0c             	mov    0xc(%ebp),%eax
    2993:	8b 50 0c             	mov    0xc(%eax),%edx
    2996:	8b 45 08             	mov    0x8(%ebp),%eax
    2999:	89 90 18 04 00 00    	mov    %edx,0x418(%eax)
    299f:	8b 45 08             	mov    0x8(%ebp),%eax
    29a2:	c7 80 1c 04 00 00 00 	movl   $0x0,0x41c(%eax)
    29a9:	00 00 00 
    29ac:	8b 45 0c             	mov    0xc(%ebp),%eax
    29af:	c7 40 04 0b 00 00 00 	movl   $0xb,0x4(%eax)
    29b6:	8b 45 08             	mov    0x8(%ebp),%eax
    29b9:	8b 90 18 04 00 00    	mov    0x418(%eax),%edx
    29bf:	8b 45 0c             	mov    0xc(%ebp),%eax
    29c2:	89 50 0c             	mov    %edx,0xc(%eax)
    29c5:	8b 45 08             	mov    0x8(%ebp),%eax
    29c8:	8b 80 0c 04 00 00    	mov    0x40c(%eax),%eax
    29ce:	83 ec 04             	sub    $0x4,%esp
    29d1:	ff 75 0c             	pushl  0xc(%ebp)
    29d4:	50                   	push   %eax
    29d5:	6a 01                	push   $0x1
    29d7:	e8 93 14 00 00       	call   3e6f <send_recv>
    29dc:	83 c4 10             	add    $0x10,%esp
    29df:	90                   	nop
    29e0:	c9                   	leave  
    29e1:	c3                   	ret    

000029e2 <tty_do_write>:
    29e2:	55                   	push   %ebp
    29e3:	89 e5                	mov    %esp,%ebp
    29e5:	83 ec 28             	sub    $0x28,%esp
    29e8:	8b 45 0c             	mov    0xc(%ebp),%eax
    29eb:	8b 50 2c             	mov    0x2c(%eax),%edx
    29ee:	8b 45 0c             	mov    0xc(%ebp),%eax
    29f1:	8b 40 10             	mov    0x10(%eax),%eax
    29f4:	83 ec 08             	sub    $0x8,%esp
    29f7:	52                   	push   %edx
    29f8:	50                   	push   %eax
    29f9:	e8 78 15 00 00       	call   3f76 <va2la>
    29fe:	83 c4 10             	add    $0x10,%esp
    2a01:	89 45 f4             	mov    %eax,-0xc(%ebp)
    2a04:	8b 45 0c             	mov    0xc(%ebp),%eax
    2a07:	8b 40 0c             	mov    0xc(%eax),%eax
    2a0a:	89 45 f0             	mov    %eax,-0x10(%ebp)
    2a0d:	eb 78                	jmp    2a87 <tty_do_write+0xa5>
    2a0f:	b8 02 00 00 00       	mov    $0x2,%eax
    2a14:	83 7d f0 02          	cmpl   $0x2,-0x10(%ebp)
    2a18:	0f 4e 45 f0          	cmovle -0x10(%ebp),%eax
    2a1c:	89 45 e8             	mov    %eax,-0x18(%ebp)
    2a1f:	83 ec 08             	sub    $0x8,%esp
    2a22:	8d 45 e6             	lea    -0x1a(%ebp),%eax
    2a25:	50                   	push   %eax
    2a26:	6a 00                	push   $0x0
    2a28:	e8 49 15 00 00       	call   3f76 <va2la>
    2a2d:	83 c4 10             	add    $0x10,%esp
    2a30:	83 ec 04             	sub    $0x4,%esp
    2a33:	ff 75 e8             	pushl  -0x18(%ebp)
    2a36:	ff 75 f4             	pushl  -0xc(%ebp)
    2a39:	50                   	push   %eax
    2a3a:	e8 a1 3e 00 00       	call   68e0 <memcpy>
    2a3f:	83 c4 10             	add    $0x10,%esp
    2a42:	c7 45 ec 00 00 00 00 	movl   $0x0,-0x14(%ebp)
    2a49:	eb 28                	jmp    2a73 <tty_do_write+0x91>
    2a4b:	8d 55 e6             	lea    -0x1a(%ebp),%edx
    2a4e:	8b 45 ec             	mov    -0x14(%ebp),%eax
    2a51:	01 d0                	add    %edx,%eax
    2a53:	0f b6 00             	movzbl (%eax),%eax
    2a56:	0f be d0             	movsbl %al,%edx
    2a59:	8b 45 08             	mov    0x8(%ebp),%eax
    2a5c:	8b 80 20 04 00 00    	mov    0x420(%eax),%eax
    2a62:	83 ec 08             	sub    $0x8,%esp
    2a65:	52                   	push   %edx
    2a66:	50                   	push   %eax
    2a67:	e8 b2 04 00 00       	call   2f1e <out_char>
    2a6c:	83 c4 10             	add    $0x10,%esp
    2a6f:	83 45 ec 01          	addl   $0x1,-0x14(%ebp)
    2a73:	8b 45 ec             	mov    -0x14(%ebp),%eax
    2a76:	3b 45 e8             	cmp    -0x18(%ebp),%eax
    2a79:	7c d0                	jl     2a4b <tty_do_write+0x69>
    2a7b:	8b 45 e8             	mov    -0x18(%ebp),%eax
    2a7e:	29 45 f0             	sub    %eax,-0x10(%ebp)
    2a81:	8b 45 e8             	mov    -0x18(%ebp),%eax
    2a84:	01 45 f4             	add    %eax,-0xc(%ebp)
    2a87:	83 7d f0 00          	cmpl   $0x0,-0x10(%ebp)
    2a8b:	75 82                	jne    2a0f <tty_do_write+0x2d>
    2a8d:	8b 45 0c             	mov    0xc(%ebp),%eax
    2a90:	c7 40 04 0d 00 00 00 	movl   $0xd,0x4(%eax)
    2a97:	8b 45 0c             	mov    0xc(%ebp),%eax
    2a9a:	8b 00                	mov    (%eax),%eax
    2a9c:	83 ec 04             	sub    $0x4,%esp
    2a9f:	ff 75 0c             	pushl  0xc(%ebp)
    2aa2:	50                   	push   %eax
    2aa3:	6a 01                	push   $0x1
    2aa5:	e8 c5 13 00 00       	call   3e6f <send_recv>
    2aaa:	83 c4 10             	add    $0x10,%esp
    2aad:	90                   	nop
    2aae:	c9                   	leave  
    2aaf:	c3                   	ret    

00002ab0 <sys_printx>:
    2ab0:	55                   	push   %ebp
    2ab1:	89 e5                	mov    %esp,%ebp
    2ab3:	83 ec 48             	sub    $0x48,%esp
    2ab6:	c7 45 bf 3f 20 6b 5f 	movl   $0x5f6b203f,-0x41(%ebp)
    2abd:	c7 45 c3 72 65 65 6e 	movl   $0x6e656572,-0x3d(%ebp)
    2ac4:	c7 45 c7 74 65 72 20 	movl   $0x20726574,-0x39(%ebp)
    2acb:	c7 45 cb 69 73 20 69 	movl   $0x69207369,-0x35(%ebp)
    2ad2:	c7 45 cf 6e 63 6f 72 	movl   $0x726f636e,-0x31(%ebp)
    2ad9:	c7 45 d3 72 65 63 74 	movl   $0x74636572,-0x2d(%ebp)
    2ae0:	c7 45 d7 20 66 6f 72 	movl   $0x726f6620,-0x29(%ebp)
    2ae7:	c7 45 db 20 75 6e 6b 	movl   $0x6b6e7520,-0x25(%ebp)
    2aee:	c7 45 df 6e 6f 77 6e 	movl   $0x6e776f6e,-0x21(%ebp)
    2af5:	c7 45 e3 20 72 65 61 	movl   $0x61657220,-0x1d(%ebp)
    2afc:	c7 45 e7 73 6f 6e 00 	movl   $0x6e6f73,-0x19(%ebp)
    2b03:	c6 45 bf 02          	movb   $0x2,-0x41(%ebp)
    2b07:	a1 a0 93 04 00       	mov    0x493a0,%eax
    2b0c:	85 c0                	test   %eax,%eax
    2b0e:	75 25                	jne    2b35 <sys_printx+0x85>
    2b10:	8b 45 14             	mov    0x14(%ebp),%eax
    2b13:	2d e0 b2 04 00       	sub    $0x4b2e0,%eax
    2b18:	c1 f8 02             	sar    $0x2,%eax
    2b1b:	69 c0 6d b1 32 7c    	imul   $0x7c32b16d,%eax,%eax
    2b21:	83 ec 08             	sub    $0x8,%esp
    2b24:	ff 75 10             	pushl  0x10(%ebp)
    2b27:	50                   	push   %eax
    2b28:	e8 49 14 00 00       	call   3f76 <va2la>
    2b2d:	83 c4 10             	add    $0x10,%esp
    2b30:	89 45 f4             	mov    %eax,-0xc(%ebp)
    2b33:	eb 17                	jmp    2b4c <sys_printx+0x9c>
    2b35:	a1 a0 93 04 00       	mov    0x493a0,%eax
    2b3a:	85 c0                	test   %eax,%eax
    2b3c:	74 08                	je     2b46 <sys_printx+0x96>
    2b3e:	8b 45 10             	mov    0x10(%ebp),%eax
    2b41:	89 45 f4             	mov    %eax,-0xc(%ebp)
    2b44:	eb 06                	jmp    2b4c <sys_printx+0x9c>
    2b46:	8d 45 bf             	lea    -0x41(%ebp),%eax
    2b49:	89 45 f4             	mov    %eax,-0xc(%ebp)
    2b4c:	8b 45 f4             	mov    -0xc(%ebp),%eax
    2b4f:	0f b6 00             	movzbl (%eax),%eax
    2b52:	3c 02                	cmp    $0x2,%al
    2b54:	74 1e                	je     2b74 <sys_printx+0xc4>
    2b56:	8b 45 f4             	mov    -0xc(%ebp),%eax
    2b59:	0f b6 00             	movzbl (%eax),%eax
    2b5c:	3c 03                	cmp    $0x3,%al
    2b5e:	0f 85 cd 00 00 00    	jne    2c31 <sys_printx+0x181>
    2b64:	a1 c0 b2 04 00       	mov    0x4b2c0,%eax
    2b69:	3d 30 b9 04 00       	cmp    $0x4b930,%eax
    2b6e:	0f 83 bd 00 00 00    	jae    2c31 <sys_printx+0x181>
    2b74:	e8 b4 3b 00 00       	call   672d <disable_int>
    2b79:	c7 45 f0 00 80 0b 00 	movl   $0xb8000,-0x10(%ebp)
    2b80:	8b 45 f4             	mov    -0xc(%ebp),%eax
    2b83:	83 c0 01             	add    $0x1,%eax
    2b86:	89 45 ec             	mov    %eax,-0x14(%ebp)
    2b89:	eb 76                	jmp    2c01 <sys_printx+0x151>
    2b8b:	8b 55 ec             	mov    -0x14(%ebp),%edx
    2b8e:	8d 42 01             	lea    0x1(%edx),%eax
    2b91:	89 45 ec             	mov    %eax,-0x14(%ebp)
    2b94:	8b 45 f0             	mov    -0x10(%ebp),%eax
    2b97:	8d 48 01             	lea    0x1(%eax),%ecx
    2b9a:	89 4d f0             	mov    %ecx,-0x10(%ebp)
    2b9d:	0f b6 12             	movzbl (%edx),%edx
    2ba0:	88 10                	mov    %dl,(%eax)
    2ba2:	8b 45 f0             	mov    -0x10(%ebp),%eax
    2ba5:	8d 50 01             	lea    0x1(%eax),%edx
    2ba8:	89 55 f0             	mov    %edx,-0x10(%ebp)
    2bab:	c6 00 1c             	movb   $0x1c,(%eax)
    2bae:	8b 45 ec             	mov    -0x14(%ebp),%eax
    2bb1:	0f b6 00             	movzbl (%eax),%eax
    2bb4:	84 c0                	test   %al,%al
    2bb6:	75 49                	jne    2c01 <sys_printx+0x151>
    2bb8:	eb 10                	jmp    2bca <sys_printx+0x11a>
    2bba:	83 45 f0 01          	addl   $0x1,-0x10(%ebp)
    2bbe:	8b 45 f0             	mov    -0x10(%ebp),%eax
    2bc1:	8d 50 01             	lea    0x1(%eax),%edx
    2bc4:	89 55 f0             	mov    %edx,-0x10(%ebp)
    2bc7:	c6 00 08             	movb   $0x8,(%eax)
    2bca:	8b 45 f0             	mov    -0x10(%ebp),%eax
    2bcd:	8d 88 00 80 f4 ff    	lea    -0xb8000(%eax),%ecx
    2bd3:	ba 67 66 66 66       	mov    $0x66666667,%edx
    2bd8:	89 c8                	mov    %ecx,%eax
    2bda:	f7 ea                	imul   %edx
    2bdc:	c1 fa 09             	sar    $0x9,%edx
    2bdf:	89 c8                	mov    %ecx,%eax
    2be1:	c1 f8 1f             	sar    $0x1f,%eax
    2be4:	29 c2                	sub    %eax,%edx
    2be6:	89 d0                	mov    %edx,%eax
    2be8:	c1 e0 02             	shl    $0x2,%eax
    2beb:	01 d0                	add    %edx,%eax
    2bed:	c1 e0 08             	shl    $0x8,%eax
    2bf0:	29 c1                	sub    %eax,%ecx
    2bf2:	89 ca                	mov    %ecx,%edx
    2bf4:	85 d2                	test   %edx,%edx
    2bf6:	75 c2                	jne    2bba <sys_printx+0x10a>
    2bf8:	8b 45 f4             	mov    -0xc(%ebp),%eax
    2bfb:	83 c0 01             	add    $0x1,%eax
    2bfe:	89 45 ec             	mov    %eax,-0x14(%ebp)
    2c01:	81 7d f0 ff ff 0b 00 	cmpl   $0xbffff,-0x10(%ebp)
    2c08:	76 81                	jbe    2b8b <sys_printx+0xdb>
    2c0a:	f4                   	hlt    
    2c0b:	eb 24                	jmp    2c31 <sys_printx+0x181>
    2c0d:	80 7d eb 02          	cmpb   $0x2,-0x15(%ebp)
    2c11:	74 1e                	je     2c31 <sys_printx+0x181>
    2c13:	80 7d eb 03          	cmpb   $0x3,-0x15(%ebp)
    2c17:	75 02                	jne    2c1b <sys_printx+0x16b>
    2c19:	eb 16                	jmp    2c31 <sys_printx+0x181>
    2c1b:	0f be 55 eb          	movsbl -0x15(%ebp),%edx
    2c1f:	a1 00 9c 04 00       	mov    0x49c00,%eax
    2c24:	83 ec 08             	sub    $0x8,%esp
    2c27:	52                   	push   %edx
    2c28:	50                   	push   %eax
    2c29:	e8 f0 02 00 00       	call   2f1e <out_char>
    2c2e:	83 c4 10             	add    $0x10,%esp
    2c31:	8b 45 f4             	mov    -0xc(%ebp),%eax
    2c34:	8d 50 01             	lea    0x1(%eax),%edx
    2c37:	89 55 f4             	mov    %edx,-0xc(%ebp)
    2c3a:	0f b6 00             	movzbl (%eax),%eax
    2c3d:	88 45 eb             	mov    %al,-0x15(%ebp)
    2c40:	80 7d eb 00          	cmpb   $0x0,-0x15(%ebp)
    2c44:	75 c7                	jne    2c0d <sys_printx+0x15d>
    2c46:	b8 00 00 00 00       	mov    $0x0,%eax
    2c4b:	c9                   	leave  
    2c4c:	c3                   	ret    

00002c4d <dump_tty_buf>:
    2c4d:	55                   	push   %ebp
    2c4e:	89 e5                	mov    %esp,%ebp
    2c50:	83 ec 18             	sub    $0x18,%esp
    2c53:	c7 45 f4 04 9c 04 00 	movl   $0x49c04,-0xc(%ebp)
    2c5a:	83 ec 0c             	sub    $0xc,%esp
    2c5d:	68 20 f6 00 00       	push   $0xf620
    2c62:	e8 60 36 00 00       	call   62c7 <printl>
    2c67:	83 c4 10             	add    $0x10,%esp
    2c6a:	8b 45 f4             	mov    -0xc(%ebp),%eax
    2c6d:	8b 90 00 04 00 00    	mov    0x400(%eax),%edx
    2c73:	8b 45 f4             	mov    -0xc(%ebp),%eax
    2c76:	29 c2                	sub    %eax,%edx
    2c78:	89 d0                	mov    %edx,%eax
    2c7a:	c1 f8 02             	sar    $0x2,%eax
    2c7d:	83 ec 08             	sub    $0x8,%esp
    2c80:	50                   	push   %eax
    2c81:	68 54 aa 00 00       	push   $0xaa54
    2c86:	e8 3c 36 00 00       	call   62c7 <printl>
    2c8b:	83 c4 10             	add    $0x10,%esp
    2c8e:	8b 45 f4             	mov    -0xc(%ebp),%eax
    2c91:	8b 90 04 04 00 00    	mov    0x404(%eax),%edx
    2c97:	8b 45 f4             	mov    -0xc(%ebp),%eax
    2c9a:	29 c2                	sub    %eax,%edx
    2c9c:	89 d0                	mov    %edx,%eax
    2c9e:	c1 f8 02             	sar    $0x2,%eax
    2ca1:	83 ec 08             	sub    $0x8,%esp
    2ca4:	50                   	push   %eax
    2ca5:	68 5e aa 00 00       	push   $0xaa5e
    2caa:	e8 18 36 00 00       	call   62c7 <printl>
    2caf:	83 c4 10             	add    $0x10,%esp
    2cb2:	8b 45 f4             	mov    -0xc(%ebp),%eax
    2cb5:	8b 80 08 04 00 00    	mov    0x408(%eax),%eax
    2cbb:	83 ec 08             	sub    $0x8,%esp
    2cbe:	50                   	push   %eax
    2cbf:	68 68 aa 00 00       	push   $0xaa68
    2cc4:	e8 fe 35 00 00       	call   62c7 <printl>
    2cc9:	83 c4 10             	add    $0x10,%esp
    2ccc:	8b 45 f4             	mov    -0xc(%ebp),%eax
    2ccf:	8b 80 0c 04 00 00    	mov    0x40c(%eax),%eax
    2cd5:	89 45 f0             	mov    %eax,-0x10(%ebp)
    2cd8:	8b 45 f0             	mov    -0x10(%ebp),%eax
    2cdb:	69 c0 94 01 00 00    	imul   $0x194,%eax,%eax
    2ce1:	83 c0 60             	add    $0x60,%eax
    2ce4:	05 e0 b2 04 00       	add    $0x4b2e0,%eax
    2ce9:	83 c0 08             	add    $0x8,%eax
    2cec:	83 ec 04             	sub    $0x4,%esp
    2cef:	ff 75 f0             	pushl  -0x10(%ebp)
    2cf2:	50                   	push   %eax
    2cf3:	68 71 aa 00 00       	push   $0xaa71
    2cf8:	e8 ca 35 00 00       	call   62c7 <printl>
    2cfd:	83 c4 10             	add    $0x10,%esp
    2d00:	8b 45 f4             	mov    -0xc(%ebp),%eax
    2d03:	8b 80 10 04 00 00    	mov    0x410(%eax),%eax
    2d09:	89 45 f0             	mov    %eax,-0x10(%ebp)
    2d0c:	8b 45 f0             	mov    -0x10(%ebp),%eax
    2d0f:	69 c0 94 01 00 00    	imul   $0x194,%eax,%eax
    2d15:	83 c0 60             	add    $0x60,%eax
    2d18:	05 e0 b2 04 00       	add    $0x4b2e0,%eax
    2d1d:	83 c0 08             	add    $0x8,%eax
    2d20:	83 ec 04             	sub    $0x4,%esp
    2d23:	ff 75 f0             	pushl  -0x10(%ebp)
    2d26:	50                   	push   %eax
    2d27:	68 71 aa 00 00       	push   $0xaa71
    2d2c:	e8 96 35 00 00       	call   62c7 <printl>
    2d31:	83 c4 10             	add    $0x10,%esp
    2d34:	8b 45 f4             	mov    -0xc(%ebp),%eax
    2d37:	8b 80 14 04 00 00    	mov    0x414(%eax),%eax
    2d3d:	83 ec 08             	sub    $0x8,%esp
    2d40:	50                   	push   %eax
    2d41:	68 82 aa 00 00       	push   $0xaa82
    2d46:	e8 7c 35 00 00       	call   62c7 <printl>
    2d4b:	83 c4 10             	add    $0x10,%esp
    2d4e:	8b 45 f4             	mov    -0xc(%ebp),%eax
    2d51:	8b 80 18 04 00 00    	mov    0x418(%eax),%eax
    2d57:	83 ec 08             	sub    $0x8,%esp
    2d5a:	50                   	push   %eax
    2d5b:	68 8f aa 00 00       	push   $0xaa8f
    2d60:	e8 62 35 00 00       	call   62c7 <printl>
    2d65:	83 c4 10             	add    $0x10,%esp
    2d68:	8b 45 f4             	mov    -0xc(%ebp),%eax
    2d6b:	8b 80 1c 04 00 00    	mov    0x41c(%eax),%eax
    2d71:	83 ec 08             	sub    $0x8,%esp
    2d74:	50                   	push   %eax
    2d75:	68 9d aa 00 00       	push   $0xaa9d
    2d7a:	e8 48 35 00 00       	call   62c7 <printl>
    2d7f:	83 c4 10             	add    $0x10,%esp
    2d82:	83 ec 0c             	sub    $0xc,%esp
    2d85:	68 ac aa 00 00       	push   $0xaaac
    2d8a:	e8 38 35 00 00       	call   62c7 <printl>
    2d8f:	83 c4 10             	add    $0x10,%esp
    2d92:	83 ec 08             	sub    $0x8,%esp
    2d95:	68 ce aa 00 00       	push   $0xaace
    2d9a:	68 20 f6 00 00       	push   $0xf620
    2d9f:	e8 86 3b 00 00       	call   692a <strcpy>
    2da4:	83 c4 10             	add    $0x10,%esp
    2da7:	90                   	nop
    2da8:	c9                   	leave  
    2da9:	c3                   	ret    

00002daa <init_screen>:
    2daa:	55                   	push   %ebp
    2dab:	89 e5                	mov    %esp,%ebp
    2dad:	83 ec 28             	sub    $0x28,%esp
    2db0:	8b 45 08             	mov    0x8(%ebp),%eax
    2db3:	2d e0 97 04 00       	sub    $0x497e0,%eax
    2db8:	c1 f8 02             	sar    $0x2,%eax
    2dbb:	69 c0 39 dd 03 1c    	imul   $0x1c03dd39,%eax,%eax
    2dc1:	89 45 f0             	mov    %eax,-0x10(%ebp)
    2dc4:	8b 55 f0             	mov    -0x10(%ebp),%edx
    2dc7:	89 d0                	mov    %edx,%eax
    2dc9:	c1 e0 02             	shl    $0x2,%eax
    2dcc:	01 d0                	add    %edx,%eax
    2dce:	c1 e0 02             	shl    $0x2,%eax
    2dd1:	8d 90 40 b2 04 00    	lea    0x4b240(%eax),%edx
    2dd7:	8b 45 08             	mov    0x8(%ebp),%eax
    2dda:	89 90 20 04 00 00    	mov    %edx,0x420(%eax)
    2de0:	c7 45 ec 00 40 00 00 	movl   $0x4000,-0x14(%ebp)
    2de7:	8b 4d ec             	mov    -0x14(%ebp),%ecx
    2dea:	ba 56 55 55 55       	mov    $0x55555556,%edx
    2def:	89 c8                	mov    %ecx,%eax
    2df1:	f7 ea                	imul   %edx
    2df3:	89 c8                	mov    %ecx,%eax
    2df5:	c1 f8 1f             	sar    $0x1f,%eax
    2df8:	29 c2                	sub    %eax,%edx
    2dfa:	89 d0                	mov    %edx,%eax
    2dfc:	89 45 e8             	mov    %eax,-0x18(%ebp)
    2dff:	8b 45 f0             	mov    -0x10(%ebp),%eax
    2e02:	0f af 45 e8          	imul   -0x18(%ebp),%eax
    2e06:	89 c2                	mov    %eax,%edx
    2e08:	8b 45 08             	mov    0x8(%ebp),%eax
    2e0b:	8b 80 20 04 00 00    	mov    0x420(%eax),%eax
    2e11:	89 50 04             	mov    %edx,0x4(%eax)
    2e14:	8b 4d e8             	mov    -0x18(%ebp),%ecx
    2e17:	ba 67 66 66 66       	mov    $0x66666667,%edx
    2e1c:	89 c8                	mov    %ecx,%eax
    2e1e:	f7 ea                	imul   %edx
    2e20:	c1 fa 05             	sar    $0x5,%edx
    2e23:	89 c8                	mov    %ecx,%eax
    2e25:	c1 f8 1f             	sar    $0x1f,%eax
    2e28:	29 c2                	sub    %eax,%edx
    2e2a:	89 d0                	mov    %edx,%eax
    2e2c:	c1 e0 02             	shl    $0x2,%eax
    2e2f:	01 d0                	add    %edx,%eax
    2e31:	c1 e0 04             	shl    $0x4,%eax
    2e34:	89 c2                	mov    %eax,%edx
    2e36:	8b 45 08             	mov    0x8(%ebp),%eax
    2e39:	8b 80 20 04 00 00    	mov    0x420(%eax),%eax
    2e3f:	89 50 08             	mov    %edx,0x8(%eax)
    2e42:	8b 45 08             	mov    0x8(%ebp),%eax
    2e45:	8b 90 20 04 00 00    	mov    0x420(%eax),%edx
    2e4b:	8b 45 08             	mov    0x8(%ebp),%eax
    2e4e:	8b 80 20 04 00 00    	mov    0x420(%eax),%eax
    2e54:	8b 52 04             	mov    0x4(%edx),%edx
    2e57:	89 10                	mov    %edx,(%eax)
    2e59:	8b 55 08             	mov    0x8(%ebp),%edx
    2e5c:	8b 92 20 04 00 00    	mov    0x420(%edx),%edx
    2e62:	8b 00                	mov    (%eax),%eax
    2e64:	89 42 0c             	mov    %eax,0xc(%edx)
    2e67:	8b 45 08             	mov    0x8(%ebp),%eax
    2e6a:	8b 80 20 04 00 00    	mov    0x420(%eax),%eax
    2e70:	c7 40 10 00 00 00 00 	movl   $0x0,0x10(%eax)
    2e77:	83 7d f0 00          	cmpl   $0x0,-0x10(%ebp)
    2e7b:	75 28                	jne    2ea5 <init_screen+0xfb>
    2e7d:	a1 24 a8 04 00       	mov    0x4a824,%eax
    2e82:	89 c2                	mov    %eax,%edx
    2e84:	c1 ea 1f             	shr    $0x1f,%edx
    2e87:	01 d0                	add    %edx,%eax
    2e89:	d1 f8                	sar    %eax
    2e8b:	89 c2                	mov    %eax,%edx
    2e8d:	8b 45 08             	mov    0x8(%ebp),%eax
    2e90:	8b 80 20 04 00 00    	mov    0x420(%eax),%eax
    2e96:	89 50 0c             	mov    %edx,0xc(%eax)
    2e99:	c7 05 24 a8 04 00 00 	movl   $0x0,0x4a824
    2ea0:	00 00 00 
    2ea3:	eb 5e                	jmp    2f03 <init_screen+0x159>
    2ea5:	c7 45 de 5b 54 54 59 	movl   $0x5954545b,-0x22(%ebp)
    2eac:	c7 45 e2 20 23 3f 5d 	movl   $0x5d3f2320,-0x1e(%ebp)
    2eb3:	66 c7 45 e6 0a 00    	movw   $0xa,-0x1a(%ebp)
    2eb9:	8d 45 de             	lea    -0x22(%ebp),%eax
    2ebc:	89 45 f4             	mov    %eax,-0xc(%ebp)
    2ebf:	eb 38                	jmp    2ef9 <init_screen+0x14f>
    2ec1:	8b 45 f4             	mov    -0xc(%ebp),%eax
    2ec4:	0f b6 00             	movzbl (%eax),%eax
    2ec7:	3c 3f                	cmp    $0x3f,%al
    2ec9:	75 0b                	jne    2ed6 <init_screen+0x12c>
    2ecb:	8b 45 f0             	mov    -0x10(%ebp),%eax
    2ece:	83 c0 30             	add    $0x30,%eax
    2ed1:	0f be c0             	movsbl %al,%eax
    2ed4:	eb 09                	jmp    2edf <init_screen+0x135>
    2ed6:	8b 45 f4             	mov    -0xc(%ebp),%eax
    2ed9:	0f b6 00             	movzbl (%eax),%eax
    2edc:	0f be c0             	movsbl %al,%eax
    2edf:	8b 55 08             	mov    0x8(%ebp),%edx
    2ee2:	8b 92 20 04 00 00    	mov    0x420(%edx),%edx
    2ee8:	83 ec 08             	sub    $0x8,%esp
    2eeb:	50                   	push   %eax
    2eec:	52                   	push   %edx
    2eed:	e8 2c 00 00 00       	call   2f1e <out_char>
    2ef2:	83 c4 10             	add    $0x10,%esp
    2ef5:	83 45 f4 01          	addl   $0x1,-0xc(%ebp)
    2ef9:	8b 45 f4             	mov    -0xc(%ebp),%eax
    2efc:	0f b6 00             	movzbl (%eax),%eax
    2eff:	84 c0                	test   %al,%al
    2f01:	75 be                	jne    2ec1 <init_screen+0x117>
    2f03:	8b 45 08             	mov    0x8(%ebp),%eax
    2f06:	8b 80 20 04 00 00    	mov    0x420(%eax),%eax
    2f0c:	8b 40 0c             	mov    0xc(%eax),%eax
    2f0f:	83 ec 0c             	sub    $0xc,%esp
    2f12:	50                   	push   %eax
    2f13:	e8 06 03 00 00       	call   321e <set_cursor>
    2f18:	83 c4 10             	add    $0x10,%esp
    2f1b:	90                   	nop
    2f1c:	c9                   	leave  
    2f1d:	c3                   	ret    

00002f1e <out_char>:
    2f1e:	55                   	push   %ebp
    2f1f:	89 e5                	mov    %esp,%ebp
    2f21:	83 ec 28             	sub    $0x28,%esp
    2f24:	8b 45 0c             	mov    0xc(%ebp),%eax
    2f27:	88 45 e4             	mov    %al,-0x1c(%ebp)
    2f2a:	8b 45 08             	mov    0x8(%ebp),%eax
    2f2d:	8b 40 0c             	mov    0xc(%eax),%eax
    2f30:	05 00 c0 05 00       	add    $0x5c000,%eax
    2f35:	01 c0                	add    %eax,%eax
    2f37:	89 45 f4             	mov    %eax,-0xc(%ebp)
    2f3a:	8b 45 08             	mov    0x8(%ebp),%eax
    2f3d:	8b 50 0c             	mov    0xc(%eax),%edx
    2f40:	8b 45 08             	mov    0x8(%ebp),%eax
    2f43:	8b 40 04             	mov    0x4(%eax),%eax
    2f46:	29 c2                	sub    %eax,%edx
    2f48:	8b 45 08             	mov    0x8(%ebp),%eax
    2f4b:	8b 40 08             	mov    0x8(%eax),%eax
    2f4e:	39 c2                	cmp    %eax,%edx
    2f50:	72 19                	jb     2f6b <out_char+0x4d>
    2f52:	6a 59                	push   $0x59
    2f54:	68 d0 aa 00 00       	push   $0xaad0
    2f59:	68 d0 aa 00 00       	push   $0xaad0
    2f5e:	68 e4 aa 00 00       	push   $0xaae4
    2f63:	e8 4b 3b 00 00       	call   6ab3 <assertion_failure>
    2f68:	83 c4 10             	add    $0x10,%esp
    2f6b:	8b 45 08             	mov    0x8(%ebp),%eax
    2f6e:	8b 50 0c             	mov    0xc(%eax),%edx
    2f71:	8b 45 08             	mov    0x8(%ebp),%eax
    2f74:	8b 40 04             	mov    0x4(%eax),%eax
    2f77:	89 d1                	mov    %edx,%ecx
    2f79:	29 c1                	sub    %eax,%ecx
    2f7b:	ba cd cc cc cc       	mov    $0xcccccccd,%edx
    2f80:	89 c8                	mov    %ecx,%eax
    2f82:	f7 e2                	mul    %edx
    2f84:	c1 ea 06             	shr    $0x6,%edx
    2f87:	89 d0                	mov    %edx,%eax
    2f89:	c1 e0 02             	shl    $0x2,%eax
    2f8c:	01 d0                	add    %edx,%eax
    2f8e:	c1 e0 04             	shl    $0x4,%eax
    2f91:	29 c1                	sub    %eax,%ecx
    2f93:	89 ca                	mov    %ecx,%edx
    2f95:	89 55 f0             	mov    %edx,-0x10(%ebp)
    2f98:	8b 45 08             	mov    0x8(%ebp),%eax
    2f9b:	8b 50 0c             	mov    0xc(%eax),%edx
    2f9e:	8b 45 08             	mov    0x8(%ebp),%eax
    2fa1:	8b 40 04             	mov    0x4(%eax),%eax
    2fa4:	29 c2                	sub    %eax,%edx
    2fa6:	89 d0                	mov    %edx,%eax
    2fa8:	ba cd cc cc cc       	mov    $0xcccccccd,%edx
    2fad:	f7 e2                	mul    %edx
    2faf:	89 d0                	mov    %edx,%eax
    2fb1:	c1 e8 06             	shr    $0x6,%eax
    2fb4:	89 45 ec             	mov    %eax,-0x14(%ebp)
    2fb7:	0f be 45 e4          	movsbl -0x1c(%ebp),%eax
    2fbb:	83 f8 08             	cmp    $0x8,%eax
    2fbe:	74 26                	je     2fe6 <out_char+0xc8>
    2fc0:	83 f8 0a             	cmp    $0xa,%eax
    2fc3:	75 54                	jne    3019 <out_char+0xfb>
    2fc5:	8b 45 08             	mov    0x8(%ebp),%eax
    2fc8:	8b 48 04             	mov    0x4(%eax),%ecx
    2fcb:	8b 45 ec             	mov    -0x14(%ebp),%eax
    2fce:	8d 50 01             	lea    0x1(%eax),%edx
    2fd1:	89 d0                	mov    %edx,%eax
    2fd3:	c1 e0 02             	shl    $0x2,%eax
    2fd6:	01 d0                	add    %edx,%eax
    2fd8:	c1 e0 04             	shl    $0x4,%eax
    2fdb:	8d 14 01             	lea    (%ecx,%eax,1),%edx
    2fde:	8b 45 08             	mov    0x8(%ebp),%eax
    2fe1:	89 50 0c             	mov    %edx,0xc(%eax)
    2fe4:	eb 60                	jmp    3046 <out_char+0x128>
    2fe6:	8b 45 08             	mov    0x8(%ebp),%eax
    2fe9:	8b 50 0c             	mov    0xc(%eax),%edx
    2fec:	8b 45 08             	mov    0x8(%ebp),%eax
    2fef:	8b 40 04             	mov    0x4(%eax),%eax
    2ff2:	39 c2                	cmp    %eax,%edx
    2ff4:	76 4f                	jbe    3045 <out_char+0x127>
    2ff6:	8b 45 08             	mov    0x8(%ebp),%eax
    2ff9:	8b 40 0c             	mov    0xc(%eax),%eax
    2ffc:	8d 50 ff             	lea    -0x1(%eax),%edx
    2fff:	8b 45 08             	mov    0x8(%ebp),%eax
    3002:	89 50 0c             	mov    %edx,0xc(%eax)
    3005:	8b 45 f4             	mov    -0xc(%ebp),%eax
    3008:	83 e8 02             	sub    $0x2,%eax
    300b:	c6 00 20             	movb   $0x20,(%eax)
    300e:	8b 45 f4             	mov    -0xc(%ebp),%eax
    3011:	83 e8 01             	sub    $0x1,%eax
    3014:	c6 00 07             	movb   $0x7,(%eax)
    3017:	eb 2c                	jmp    3045 <out_char+0x127>
    3019:	8b 45 f4             	mov    -0xc(%ebp),%eax
    301c:	8d 50 01             	lea    0x1(%eax),%edx
    301f:	89 55 f4             	mov    %edx,-0xc(%ebp)
    3022:	0f b6 55 e4          	movzbl -0x1c(%ebp),%edx
    3026:	88 10                	mov    %dl,(%eax)
    3028:	8b 45 f4             	mov    -0xc(%ebp),%eax
    302b:	8d 50 01             	lea    0x1(%eax),%edx
    302e:	89 55 f4             	mov    %edx,-0xc(%ebp)
    3031:	c6 00 07             	movb   $0x7,(%eax)
    3034:	8b 45 08             	mov    0x8(%ebp),%eax
    3037:	8b 40 0c             	mov    0xc(%eax),%eax
    303a:	8d 50 01             	lea    0x1(%eax),%edx
    303d:	8b 45 08             	mov    0x8(%ebp),%eax
    3040:	89 50 0c             	mov    %edx,0xc(%eax)
    3043:	eb 01                	jmp    3046 <out_char+0x128>
    3045:	90                   	nop
    3046:	8b 45 08             	mov    0x8(%ebp),%eax
    3049:	8b 50 0c             	mov    0xc(%eax),%edx
    304c:	8b 45 08             	mov    0x8(%ebp),%eax
    304f:	8b 40 04             	mov    0x4(%eax),%eax
    3052:	29 c2                	sub    %eax,%edx
    3054:	8b 45 08             	mov    0x8(%ebp),%eax
    3057:	8b 40 08             	mov    0x8(%eax),%eax
    305a:	39 c2                	cmp    %eax,%edx
    305c:	0f 82 d1 00 00 00    	jb     3133 <out_char+0x215>
    3062:	8b 45 08             	mov    0x8(%ebp),%eax
    3065:	8b 50 0c             	mov    0xc(%eax),%edx
    3068:	8b 45 08             	mov    0x8(%ebp),%eax
    306b:	8b 40 04             	mov    0x4(%eax),%eax
    306e:	89 d1                	mov    %edx,%ecx
    3070:	29 c1                	sub    %eax,%ecx
    3072:	ba cd cc cc cc       	mov    $0xcccccccd,%edx
    3077:	89 c8                	mov    %ecx,%eax
    3079:	f7 e2                	mul    %edx
    307b:	c1 ea 06             	shr    $0x6,%edx
    307e:	89 d0                	mov    %edx,%eax
    3080:	c1 e0 02             	shl    $0x2,%eax
    3083:	01 d0                	add    %edx,%eax
    3085:	c1 e0 04             	shl    $0x4,%eax
    3088:	29 c1                	sub    %eax,%ecx
    308a:	89 ca                	mov    %ecx,%edx
    308c:	89 55 f0             	mov    %edx,-0x10(%ebp)
    308f:	8b 45 08             	mov    0x8(%ebp),%eax
    3092:	8b 50 0c             	mov    0xc(%eax),%edx
    3095:	8b 45 08             	mov    0x8(%ebp),%eax
    3098:	8b 40 04             	mov    0x4(%eax),%eax
    309b:	29 c2                	sub    %eax,%edx
    309d:	89 d0                	mov    %edx,%eax
    309f:	ba cd cc cc cc       	mov    $0xcccccccd,%edx
    30a4:	f7 e2                	mul    %edx
    30a6:	89 d0                	mov    %edx,%eax
    30a8:	c1 e8 06             	shr    $0x6,%eax
    30ab:	89 45 ec             	mov    %eax,-0x14(%ebp)
    30ae:	8b 45 08             	mov    0x8(%ebp),%eax
    30b1:	8b 48 04             	mov    0x4(%eax),%ecx
    30b4:	8b 45 ec             	mov    -0x14(%ebp),%eax
    30b7:	8d 50 01             	lea    0x1(%eax),%edx
    30ba:	89 d0                	mov    %edx,%eax
    30bc:	c1 e0 02             	shl    $0x2,%eax
    30bf:	01 d0                	add    %edx,%eax
    30c1:	c1 e0 04             	shl    $0x4,%eax
    30c4:	01 c8                	add    %ecx,%eax
    30c6:	2d d0 07 00 00       	sub    $0x7d0,%eax
    30cb:	89 45 e8             	mov    %eax,-0x18(%ebp)
    30ce:	8b 55 e8             	mov    -0x18(%ebp),%edx
    30d1:	8b 45 08             	mov    0x8(%ebp),%eax
    30d4:	8b 40 04             	mov    0x4(%eax),%eax
    30d7:	83 ec 04             	sub    $0x4,%esp
    30da:	68 80 07 00 00       	push   $0x780
    30df:	52                   	push   %edx
    30e0:	50                   	push   %eax
    30e1:	e8 67 04 00 00       	call   354d <w_copy>
    30e6:	83 c4 10             	add    $0x10,%esp
    30e9:	8b 45 08             	mov    0x8(%ebp),%eax
    30ec:	8b 50 04             	mov    0x4(%eax),%edx
    30ef:	8b 45 08             	mov    0x8(%ebp),%eax
    30f2:	89 10                	mov    %edx,(%eax)
    30f4:	8b 45 08             	mov    0x8(%ebp),%eax
    30f7:	8b 50 04             	mov    0x4(%eax),%edx
    30fa:	8b 45 f0             	mov    -0x10(%ebp),%eax
    30fd:	01 d0                	add    %edx,%eax
    30ff:	8d 90 80 07 00 00    	lea    0x780(%eax),%edx
    3105:	8b 45 08             	mov    0x8(%ebp),%eax
    3108:	89 50 0c             	mov    %edx,0xc(%eax)
    310b:	8b 45 08             	mov    0x8(%ebp),%eax
    310e:	8b 40 0c             	mov    0xc(%eax),%eax
    3111:	83 ec 08             	sub    $0x8,%esp
    3114:	6a 50                	push   $0x50
    3116:	50                   	push   %eax
    3117:	e8 a5 00 00 00       	call   31c1 <clear_screen>
    311c:	83 c4 10             	add    $0x10,%esp
    311f:	8b 45 08             	mov    0x8(%ebp),%eax
    3122:	8b 40 10             	mov    0x10(%eax),%eax
    3125:	85 c0                	test   %eax,%eax
    3127:	75 0a                	jne    3133 <out_char+0x215>
    3129:	8b 45 08             	mov    0x8(%ebp),%eax
    312c:	c7 40 10 01 00 00 00 	movl   $0x1,0x10(%eax)
    3133:	8b 45 08             	mov    0x8(%ebp),%eax
    3136:	8b 50 0c             	mov    0xc(%eax),%edx
    3139:	8b 45 08             	mov    0x8(%ebp),%eax
    313c:	8b 40 04             	mov    0x4(%eax),%eax
    313f:	29 c2                	sub    %eax,%edx
    3141:	8b 45 08             	mov    0x8(%ebp),%eax
    3144:	8b 40 08             	mov    0x8(%eax),%eax
    3147:	39 c2                	cmp    %eax,%edx
    3149:	72 42                	jb     318d <out_char+0x26f>
    314b:	68 80 00 00 00       	push   $0x80
    3150:	68 d0 aa 00 00       	push   $0xaad0
    3155:	68 d0 aa 00 00       	push   $0xaad0
    315a:	68 e4 aa 00 00       	push   $0xaae4
    315f:	e8 4f 39 00 00       	call   6ab3 <assertion_failure>
    3164:	83 c4 10             	add    $0x10,%esp
    3167:	eb 24                	jmp    318d <out_char+0x26f>
    3169:	83 ec 08             	sub    $0x8,%esp
    316c:	6a 01                	push   $0x1
    316e:	ff 75 08             	pushl  0x8(%ebp)
    3171:	e8 b8 01 00 00       	call   332e <scroll_screen>
    3176:	83 c4 10             	add    $0x10,%esp
    3179:	8b 45 08             	mov    0x8(%ebp),%eax
    317c:	8b 40 0c             	mov    0xc(%eax),%eax
    317f:	83 ec 08             	sub    $0x8,%esp
    3182:	6a 50                	push   $0x50
    3184:	50                   	push   %eax
    3185:	e8 37 00 00 00       	call   31c1 <clear_screen>
    318a:	83 c4 10             	add    $0x10,%esp
    318d:	8b 45 08             	mov    0x8(%ebp),%eax
    3190:	8b 50 0c             	mov    0xc(%eax),%edx
    3193:	8b 45 08             	mov    0x8(%ebp),%eax
    3196:	8b 00                	mov    (%eax),%eax
    3198:	05 d0 07 00 00       	add    $0x7d0,%eax
    319d:	39 c2                	cmp    %eax,%edx
    319f:	73 c8                	jae    3169 <out_char+0x24b>
    31a1:	8b 45 08             	mov    0x8(%ebp),%eax
    31a4:	8b 50 0c             	mov    0xc(%eax),%edx
    31a7:	8b 45 08             	mov    0x8(%ebp),%eax
    31aa:	8b 00                	mov    (%eax),%eax
    31ac:	39 c2                	cmp    %eax,%edx
    31ae:	72 b9                	jb     3169 <out_char+0x24b>
    31b0:	83 ec 0c             	sub    $0xc,%esp
    31b3:	ff 75 08             	pushl  0x8(%ebp)
    31b6:	e8 57 03 00 00       	call   3512 <flush>
    31bb:	83 c4 10             	add    $0x10,%esp
    31be:	90                   	nop
    31bf:	c9                   	leave  
    31c0:	c3                   	ret    

000031c1 <clear_screen>:
    31c1:	55                   	push   %ebp
    31c2:	89 e5                	mov    %esp,%ebp
    31c4:	83 ec 10             	sub    $0x10,%esp
    31c7:	8b 45 08             	mov    0x8(%ebp),%eax
    31ca:	05 00 c0 05 00       	add    $0x5c000,%eax
    31cf:	01 c0                	add    %eax,%eax
    31d1:	89 45 fc             	mov    %eax,-0x4(%ebp)
    31d4:	eb 18                	jmp    31ee <clear_screen+0x2d>
    31d6:	8b 45 fc             	mov    -0x4(%ebp),%eax
    31d9:	8d 50 01             	lea    0x1(%eax),%edx
    31dc:	89 55 fc             	mov    %edx,-0x4(%ebp)
    31df:	c6 00 20             	movb   $0x20,(%eax)
    31e2:	8b 45 fc             	mov    -0x4(%ebp),%eax
    31e5:	8d 50 01             	lea    0x1(%eax),%edx
    31e8:	89 55 fc             	mov    %edx,-0x4(%ebp)
    31eb:	c6 00 07             	movb   $0x7,(%eax)
    31ee:	83 6d 0c 01          	subl   $0x1,0xc(%ebp)
    31f2:	83 7d 0c 00          	cmpl   $0x0,0xc(%ebp)
    31f6:	79 de                	jns    31d6 <clear_screen+0x15>
    31f8:	90                   	nop
    31f9:	c9                   	leave  
    31fa:	c3                   	ret    

000031fb <is_current_console>:
    31fb:	55                   	push   %ebp
    31fc:	89 e5                	mov    %esp,%ebp
    31fe:	8b 15 c0 97 04 00    	mov    0x497c0,%edx
    3204:	89 d0                	mov    %edx,%eax
    3206:	c1 e0 02             	shl    $0x2,%eax
    3209:	01 d0                	add    %edx,%eax
    320b:	c1 e0 02             	shl    $0x2,%eax
    320e:	05 40 b2 04 00       	add    $0x4b240,%eax
    3213:	39 45 08             	cmp    %eax,0x8(%ebp)
    3216:	0f 94 c0             	sete   %al
    3219:	0f b6 c0             	movzbl %al,%eax
    321c:	5d                   	pop    %ebp
    321d:	c3                   	ret    

0000321e <set_cursor>:
    321e:	55                   	push   %ebp
    321f:	89 e5                	mov    %esp,%ebp
    3221:	83 ec 08             	sub    $0x8,%esp
    3224:	e8 04 35 00 00       	call   672d <disable_int>
    3229:	83 ec 08             	sub    $0x8,%esp
    322c:	6a 0e                	push   $0xe
    322e:	68 d4 03 00 00       	push   $0x3d4
    3233:	e8 65 34 00 00       	call   669d <out_byte>
    3238:	83 c4 10             	add    $0x10,%esp
    323b:	8b 45 08             	mov    0x8(%ebp),%eax
    323e:	c1 e8 08             	shr    $0x8,%eax
    3241:	0f b6 c0             	movzbl %al,%eax
    3244:	83 ec 08             	sub    $0x8,%esp
    3247:	50                   	push   %eax
    3248:	68 d5 03 00 00       	push   $0x3d5
    324d:	e8 4b 34 00 00       	call   669d <out_byte>
    3252:	83 c4 10             	add    $0x10,%esp
    3255:	83 ec 08             	sub    $0x8,%esp
    3258:	6a 0f                	push   $0xf
    325a:	68 d4 03 00 00       	push   $0x3d4
    325f:	e8 39 34 00 00       	call   669d <out_byte>
    3264:	83 c4 10             	add    $0x10,%esp
    3267:	8b 45 08             	mov    0x8(%ebp),%eax
    326a:	0f b6 c0             	movzbl %al,%eax
    326d:	83 ec 08             	sub    $0x8,%esp
    3270:	50                   	push   %eax
    3271:	68 d5 03 00 00       	push   $0x3d5
    3276:	e8 22 34 00 00       	call   669d <out_byte>
    327b:	83 c4 10             	add    $0x10,%esp
    327e:	e8 ac 34 00 00       	call   672f <enable_int>
    3283:	90                   	nop
    3284:	c9                   	leave  
    3285:	c3                   	ret    

00003286 <set_video_start_addr>:
    3286:	55                   	push   %ebp
    3287:	89 e5                	mov    %esp,%ebp
    3289:	83 ec 08             	sub    $0x8,%esp
    328c:	e8 9c 34 00 00       	call   672d <disable_int>
    3291:	83 ec 08             	sub    $0x8,%esp
    3294:	6a 0c                	push   $0xc
    3296:	68 d4 03 00 00       	push   $0x3d4
    329b:	e8 fd 33 00 00       	call   669d <out_byte>
    32a0:	83 c4 10             	add    $0x10,%esp
    32a3:	8b 45 08             	mov    0x8(%ebp),%eax
    32a6:	c1 e8 08             	shr    $0x8,%eax
    32a9:	0f b6 c0             	movzbl %al,%eax
    32ac:	83 ec 08             	sub    $0x8,%esp
    32af:	50                   	push   %eax
    32b0:	68 d5 03 00 00       	push   $0x3d5
    32b5:	e8 e3 33 00 00       	call   669d <out_byte>
    32ba:	83 c4 10             	add    $0x10,%esp
    32bd:	83 ec 08             	sub    $0x8,%esp
    32c0:	6a 0d                	push   $0xd
    32c2:	68 d4 03 00 00       	push   $0x3d4
    32c7:	e8 d1 33 00 00       	call   669d <out_byte>
    32cc:	83 c4 10             	add    $0x10,%esp
    32cf:	8b 45 08             	mov    0x8(%ebp),%eax
    32d2:	0f b6 c0             	movzbl %al,%eax
    32d5:	83 ec 08             	sub    $0x8,%esp
    32d8:	50                   	push   %eax
    32d9:	68 d5 03 00 00       	push   $0x3d5
    32de:	e8 ba 33 00 00       	call   669d <out_byte>
    32e3:	83 c4 10             	add    $0x10,%esp
    32e6:	e8 44 34 00 00       	call   672f <enable_int>
    32eb:	90                   	nop
    32ec:	c9                   	leave  
    32ed:	c3                   	ret    

000032ee <select_console>:
    32ee:	55                   	push   %ebp
    32ef:	89 e5                	mov    %esp,%ebp
    32f1:	83 ec 08             	sub    $0x8,%esp
    32f4:	83 7d 08 00          	cmpl   $0x0,0x8(%ebp)
    32f8:	78 31                	js     332b <select_console+0x3d>
    32fa:	83 7d 08 02          	cmpl   $0x2,0x8(%ebp)
    32fe:	7f 2b                	jg     332b <select_console+0x3d>
    3300:	8b 45 08             	mov    0x8(%ebp),%eax
    3303:	a3 c0 97 04 00       	mov    %eax,0x497c0
    3308:	8b 15 c0 97 04 00    	mov    0x497c0,%edx
    330e:	89 d0                	mov    %edx,%eax
    3310:	c1 e0 02             	shl    $0x2,%eax
    3313:	01 d0                	add    %edx,%eax
    3315:	c1 e0 02             	shl    $0x2,%eax
    3318:	05 40 b2 04 00       	add    $0x4b240,%eax
    331d:	83 ec 0c             	sub    $0xc,%esp
    3320:	50                   	push   %eax
    3321:	e8 ec 01 00 00       	call   3512 <flush>
    3326:	83 c4 10             	add    $0x10,%esp
    3329:	eb 01                	jmp    332c <select_console+0x3e>
    332b:	90                   	nop
    332c:	c9                   	leave  
    332d:	c3                   	ret    

0000332e <scroll_screen>:
    332e:	55                   	push   %ebp
    332f:	89 e5                	mov    %esp,%ebp
    3331:	83 ec 18             	sub    $0x18,%esp
    3334:	8b 45 08             	mov    0x8(%ebp),%eax
    3337:	8b 50 0c             	mov    0xc(%eax),%edx
    333a:	8b 45 08             	mov    0x8(%ebp),%eax
    333d:	8b 40 04             	mov    0x4(%eax),%eax
    3340:	29 c2                	sub    %eax,%edx
    3342:	89 d0                	mov    %edx,%eax
    3344:	ba cd cc cc cc       	mov    $0xcccccccd,%edx
    3349:	f7 e2                	mul    %edx
    334b:	c1 ea 06             	shr    $0x6,%edx
    334e:	89 d0                	mov    %edx,%eax
    3350:	c1 e0 02             	shl    $0x2,%eax
    3353:	01 d0                	add    %edx,%eax
    3355:	c1 e0 04             	shl    $0x4,%eax
    3358:	89 45 f4             	mov    %eax,-0xc(%ebp)
    335b:	8b 45 08             	mov    0x8(%ebp),%eax
    335e:	8b 40 10             	mov    0x10(%eax),%eax
    3361:	85 c0                	test   %eax,%eax
    3363:	74 1b                	je     3380 <scroll_screen+0x52>
    3365:	8b 45 f4             	mov    -0xc(%ebp),%eax
    3368:	83 c0 50             	add    $0x50,%eax
    336b:	89 c2                	mov    %eax,%edx
    336d:	8b 45 08             	mov    0x8(%ebp),%eax
    3370:	8b 48 08             	mov    0x8(%eax),%ecx
    3373:	89 d0                	mov    %edx,%eax
    3375:	ba 00 00 00 00       	mov    $0x0,%edx
    337a:	f7 f1                	div    %ecx
    337c:	89 d0                	mov    %edx,%eax
    337e:	eb 05                	jmp    3385 <scroll_screen+0x57>
    3380:	b8 00 00 00 00       	mov    $0x0,%eax
    3385:	89 45 f0             	mov    %eax,-0x10(%ebp)
    3388:	8b 45 08             	mov    0x8(%ebp),%eax
    338b:	8b 10                	mov    (%eax),%edx
    338d:	8b 45 08             	mov    0x8(%ebp),%eax
    3390:	8b 40 04             	mov    0x4(%eax),%eax
    3393:	29 c2                	sub    %eax,%edx
    3395:	89 d0                	mov    %edx,%eax
    3397:	89 45 ec             	mov    %eax,-0x14(%ebp)
    339a:	83 7d 0c ff          	cmpl   $0xffffffff,0xc(%ebp)
    339e:	0f 85 c2 00 00 00    	jne    3466 <scroll_screen+0x138>
    33a4:	8b 45 08             	mov    0x8(%ebp),%eax
    33a7:	8b 40 10             	mov    0x10(%eax),%eax
    33aa:	85 c0                	test   %eax,%eax
    33ac:	75 18                	jne    33c6 <scroll_screen+0x98>
    33ae:	83 7d ec 00          	cmpl   $0x0,-0x14(%ebp)
    33b2:	7e 12                	jle    33c6 <scroll_screen+0x98>
    33b4:	8b 45 08             	mov    0x8(%ebp),%eax
    33b7:	8b 00                	mov    (%eax),%eax
    33b9:	8d 50 b0             	lea    -0x50(%eax),%edx
    33bc:	8b 45 08             	mov    0x8(%ebp),%eax
    33bf:	89 10                	mov    %edx,(%eax)
    33c1:	e9 3b 01 00 00       	jmp    3501 <scroll_screen+0x1d3>
    33c6:	8b 45 08             	mov    0x8(%ebp),%eax
    33c9:	8b 40 10             	mov    0x10(%eax),%eax
    33cc:	85 c0                	test   %eax,%eax
    33ce:	0f 84 2d 01 00 00    	je     3501 <scroll_screen+0x1d3>
    33d4:	8b 45 ec             	mov    -0x14(%ebp),%eax
    33d7:	3b 45 f0             	cmp    -0x10(%ebp),%eax
    33da:	0f 84 21 01 00 00    	je     3501 <scroll_screen+0x1d3>
    33e0:	8b 45 08             	mov    0x8(%ebp),%eax
    33e3:	8b 50 0c             	mov    0xc(%eax),%edx
    33e6:	8b 45 08             	mov    0x8(%ebp),%eax
    33e9:	8b 40 04             	mov    0x4(%eax),%eax
    33ec:	29 c2                	sub    %eax,%edx
    33ee:	8b 45 08             	mov    0x8(%ebp),%eax
    33f1:	8b 40 08             	mov    0x8(%eax),%eax
    33f4:	2d d0 07 00 00       	sub    $0x7d0,%eax
    33f9:	39 c2                	cmp    %eax,%edx
    33fb:	72 25                	jb     3422 <scroll_screen+0xf4>
    33fd:	8b 45 08             	mov    0x8(%ebp),%eax
    3400:	8b 10                	mov    (%eax),%edx
    3402:	8b 45 08             	mov    0x8(%ebp),%eax
    3405:	8b 40 04             	mov    0x4(%eax),%eax
    3408:	39 c2                	cmp    %eax,%edx
    340a:	0f 84 f1 00 00 00    	je     3501 <scroll_screen+0x1d3>
    3410:	8b 45 08             	mov    0x8(%ebp),%eax
    3413:	8b 00                	mov    (%eax),%eax
    3415:	8d 50 b0             	lea    -0x50(%eax),%edx
    3418:	8b 45 08             	mov    0x8(%ebp),%eax
    341b:	89 10                	mov    %edx,(%eax)
    341d:	e9 df 00 00 00       	jmp    3501 <scroll_screen+0x1d3>
    3422:	8b 45 08             	mov    0x8(%ebp),%eax
    3425:	8b 10                	mov    (%eax),%edx
    3427:	8b 45 08             	mov    0x8(%ebp),%eax
    342a:	8b 40 04             	mov    0x4(%eax),%eax
    342d:	39 c2                	cmp    %eax,%edx
    342f:	75 23                	jne    3454 <scroll_screen+0x126>
    3431:	8b 45 08             	mov    0x8(%ebp),%eax
    3434:	8b 40 08             	mov    0x8(%eax),%eax
    3437:	2d d0 07 00 00       	sub    $0x7d0,%eax
    343c:	89 45 ec             	mov    %eax,-0x14(%ebp)
    343f:	8b 45 08             	mov    0x8(%ebp),%eax
    3442:	8b 50 04             	mov    0x4(%eax),%edx
    3445:	8b 45 ec             	mov    -0x14(%ebp),%eax
    3448:	01 c2                	add    %eax,%edx
    344a:	8b 45 08             	mov    0x8(%ebp),%eax
    344d:	89 10                	mov    %edx,(%eax)
    344f:	e9 ad 00 00 00       	jmp    3501 <scroll_screen+0x1d3>
    3454:	8b 45 08             	mov    0x8(%ebp),%eax
    3457:	8b 00                	mov    (%eax),%eax
    3459:	8d 50 b0             	lea    -0x50(%eax),%edx
    345c:	8b 45 08             	mov    0x8(%ebp),%eax
    345f:	89 10                	mov    %edx,(%eax)
    3461:	e9 9b 00 00 00       	jmp    3501 <scroll_screen+0x1d3>
    3466:	83 7d 0c 01          	cmpl   $0x1,0xc(%ebp)
    346a:	75 6d                	jne    34d9 <scroll_screen+0x1ab>
    346c:	8b 45 08             	mov    0x8(%ebp),%eax
    346f:	8b 40 10             	mov    0x10(%eax),%eax
    3472:	85 c0                	test   %eax,%eax
    3474:	75 1c                	jne    3492 <scroll_screen+0x164>
    3476:	8b 45 ec             	mov    -0x14(%ebp),%eax
    3479:	05 cf 07 00 00       	add    $0x7cf,%eax
    347e:	39 45 f4             	cmp    %eax,-0xc(%ebp)
    3481:	7e 0f                	jle    3492 <scroll_screen+0x164>
    3483:	8b 45 08             	mov    0x8(%ebp),%eax
    3486:	8b 00                	mov    (%eax),%eax
    3488:	8d 50 50             	lea    0x50(%eax),%edx
    348b:	8b 45 08             	mov    0x8(%ebp),%eax
    348e:	89 10                	mov    %edx,(%eax)
    3490:	eb 6f                	jmp    3501 <scroll_screen+0x1d3>
    3492:	8b 45 08             	mov    0x8(%ebp),%eax
    3495:	8b 40 10             	mov    0x10(%eax),%eax
    3498:	85 c0                	test   %eax,%eax
    349a:	74 65                	je     3501 <scroll_screen+0x1d3>
    349c:	8b 45 ec             	mov    -0x14(%ebp),%eax
    349f:	05 80 07 00 00       	add    $0x780,%eax
    34a4:	39 45 f4             	cmp    %eax,-0xc(%ebp)
    34a7:	74 58                	je     3501 <scroll_screen+0x1d3>
    34a9:	8b 45 ec             	mov    -0x14(%ebp),%eax
    34ac:	05 d0 07 00 00       	add    $0x7d0,%eax
    34b1:	89 c2                	mov    %eax,%edx
    34b3:	8b 45 08             	mov    0x8(%ebp),%eax
    34b6:	8b 40 08             	mov    0x8(%eax),%eax
    34b9:	39 c2                	cmp    %eax,%edx
    34bb:	75 0d                	jne    34ca <scroll_screen+0x19c>
    34bd:	8b 45 08             	mov    0x8(%ebp),%eax
    34c0:	8b 50 04             	mov    0x4(%eax),%edx
    34c3:	8b 45 08             	mov    0x8(%ebp),%eax
    34c6:	89 10                	mov    %edx,(%eax)
    34c8:	eb 37                	jmp    3501 <scroll_screen+0x1d3>
    34ca:	8b 45 08             	mov    0x8(%ebp),%eax
    34cd:	8b 00                	mov    (%eax),%eax
    34cf:	8d 50 50             	lea    0x50(%eax),%edx
    34d2:	8b 45 08             	mov    0x8(%ebp),%eax
    34d5:	89 10                	mov    %edx,(%eax)
    34d7:	eb 28                	jmp    3501 <scroll_screen+0x1d3>
    34d9:	83 7d 0c ff          	cmpl   $0xffffffff,0xc(%ebp)
    34dd:	74 22                	je     3501 <scroll_screen+0x1d3>
    34df:	83 7d 0c 01          	cmpl   $0x1,0xc(%ebp)
    34e3:	74 1c                	je     3501 <scroll_screen+0x1d3>
    34e5:	68 24 01 00 00       	push   $0x124
    34ea:	68 d0 aa 00 00       	push   $0xaad0
    34ef:	68 d0 aa 00 00       	push   $0xaad0
    34f4:	68 0c ab 00 00       	push   $0xab0c
    34f9:	e8 b5 35 00 00       	call   6ab3 <assertion_failure>
    34fe:	83 c4 10             	add    $0x10,%esp
    3501:	83 ec 0c             	sub    $0xc,%esp
    3504:	ff 75 08             	pushl  0x8(%ebp)
    3507:	e8 06 00 00 00       	call   3512 <flush>
    350c:	83 c4 10             	add    $0x10,%esp
    350f:	90                   	nop
    3510:	c9                   	leave  
    3511:	c3                   	ret    

00003512 <flush>:
    3512:	55                   	push   %ebp
    3513:	89 e5                	mov    %esp,%ebp
    3515:	83 ec 08             	sub    $0x8,%esp
    3518:	ff 75 08             	pushl  0x8(%ebp)
    351b:	e8 db fc ff ff       	call   31fb <is_current_console>
    3520:	83 c4 04             	add    $0x4,%esp
    3523:	85 c0                	test   %eax,%eax
    3525:	74 23                	je     354a <flush+0x38>
    3527:	8b 45 08             	mov    0x8(%ebp),%eax
    352a:	8b 40 0c             	mov    0xc(%eax),%eax
    352d:	83 ec 0c             	sub    $0xc,%esp
    3530:	50                   	push   %eax
    3531:	e8 e8 fc ff ff       	call   321e <set_cursor>
    3536:	83 c4 10             	add    $0x10,%esp
    3539:	8b 45 08             	mov    0x8(%ebp),%eax
    353c:	8b 00                	mov    (%eax),%eax
    353e:	83 ec 0c             	sub    $0xc,%esp
    3541:	50                   	push   %eax
    3542:	e8 3f fd ff ff       	call   3286 <set_video_start_addr>
    3547:	83 c4 10             	add    $0x10,%esp
    354a:	90                   	nop
    354b:	c9                   	leave  
    354c:	c3                   	ret    

0000354d <w_copy>:
    354d:	55                   	push   %ebp
    354e:	89 e5                	mov    %esp,%ebp
    3550:	83 ec 08             	sub    $0x8,%esp
    3553:	8b 45 10             	mov    0x10(%ebp),%eax
    3556:	01 c0                	add    %eax,%eax
    3558:	8b 55 0c             	mov    0xc(%ebp),%edx
    355b:	01 d2                	add    %edx,%edx
    355d:	81 c2 00 80 0b 00    	add    $0xb8000,%edx
    3563:	89 d1                	mov    %edx,%ecx
    3565:	8b 55 08             	mov    0x8(%ebp),%edx
    3568:	01 d2                	add    %edx,%edx
    356a:	81 c2 00 80 0b 00    	add    $0xb8000,%edx
    3570:	83 ec 04             	sub    $0x4,%esp
    3573:	50                   	push   %eax
    3574:	51                   	push   %ecx
    3575:	52                   	push   %edx
    3576:	e8 65 33 00 00       	call   68e0 <memcpy>
    357b:	83 c4 10             	add    $0x10,%esp
    357e:	90                   	nop
    357f:	c9                   	leave  
    3580:	c3                   	ret    

00003581 <init_8259A>:
    3581:	55                   	push   %ebp
    3582:	89 e5                	mov    %esp,%ebp
    3584:	83 ec 18             	sub    $0x18,%esp
    3587:	83 ec 08             	sub    $0x8,%esp
    358a:	6a 11                	push   $0x11
    358c:	6a 20                	push   $0x20
    358e:	e8 0a 31 00 00       	call   669d <out_byte>
    3593:	83 c4 10             	add    $0x10,%esp
    3596:	83 ec 08             	sub    $0x8,%esp
    3599:	6a 11                	push   $0x11
    359b:	68 a0 00 00 00       	push   $0xa0
    35a0:	e8 f8 30 00 00       	call   669d <out_byte>
    35a5:	83 c4 10             	add    $0x10,%esp
    35a8:	83 ec 08             	sub    $0x8,%esp
    35ab:	6a 20                	push   $0x20
    35ad:	6a 21                	push   $0x21
    35af:	e8 e9 30 00 00       	call   669d <out_byte>
    35b4:	83 c4 10             	add    $0x10,%esp
    35b7:	83 ec 08             	sub    $0x8,%esp
    35ba:	6a 28                	push   $0x28
    35bc:	68 a1 00 00 00       	push   $0xa1
    35c1:	e8 d7 30 00 00       	call   669d <out_byte>
    35c6:	83 c4 10             	add    $0x10,%esp
    35c9:	83 ec 08             	sub    $0x8,%esp
    35cc:	6a 04                	push   $0x4
    35ce:	6a 21                	push   $0x21
    35d0:	e8 c8 30 00 00       	call   669d <out_byte>
    35d5:	83 c4 10             	add    $0x10,%esp
    35d8:	83 ec 08             	sub    $0x8,%esp
    35db:	6a 02                	push   $0x2
    35dd:	68 a1 00 00 00       	push   $0xa1
    35e2:	e8 b6 30 00 00       	call   669d <out_byte>
    35e7:	83 c4 10             	add    $0x10,%esp
    35ea:	83 ec 08             	sub    $0x8,%esp
    35ed:	6a 01                	push   $0x1
    35ef:	6a 21                	push   $0x21
    35f1:	e8 a7 30 00 00       	call   669d <out_byte>
    35f6:	83 c4 10             	add    $0x10,%esp
    35f9:	83 ec 08             	sub    $0x8,%esp
    35fc:	6a 01                	push   $0x1
    35fe:	68 a1 00 00 00       	push   $0xa1
    3603:	e8 95 30 00 00       	call   669d <out_byte>
    3608:	83 c4 10             	add    $0x10,%esp
    360b:	83 ec 08             	sub    $0x8,%esp
    360e:	68 ff 00 00 00       	push   $0xff
    3613:	6a 21                	push   $0x21
    3615:	e8 83 30 00 00       	call   669d <out_byte>
    361a:	83 c4 10             	add    $0x10,%esp
    361d:	83 ec 08             	sub    $0x8,%esp
    3620:	68 ff 00 00 00       	push   $0xff
    3625:	68 a1 00 00 00       	push   $0xa1
    362a:	e8 6e 30 00 00       	call   669d <out_byte>
    362f:	83 c4 10             	add    $0x10,%esp
    3632:	c7 45 f4 00 00 00 00 	movl   $0x0,-0xc(%ebp)
    3639:	eb 12                	jmp    364d <init_8259A+0xcc>
    363b:	8b 45 f4             	mov    -0xc(%ebp),%eax
    363e:	c7 04 85 80 b2 04 00 	movl   $0x3656,0x4b280(,%eax,4)
    3645:	56 36 00 00 
    3649:	83 45 f4 01          	addl   $0x1,-0xc(%ebp)
    364d:	83 7d f4 0f          	cmpl   $0xf,-0xc(%ebp)
    3651:	7e e8                	jle    363b <init_8259A+0xba>
    3653:	90                   	nop
    3654:	c9                   	leave  
    3655:	c3                   	ret    

00003656 <spurious_irq>:
    3656:	55                   	push   %ebp
    3657:	89 e5                	mov    %esp,%ebp
    3659:	83 ec 08             	sub    $0x8,%esp
    365c:	83 ec 0c             	sub    $0xc,%esp
    365f:	68 2b ab 00 00       	push   $0xab2b
    3664:	e8 b7 2f 00 00       	call   6620 <disp_str>
    3669:	83 c4 10             	add    $0x10,%esp
    366c:	83 ec 0c             	sub    $0xc,%esp
    366f:	ff 75 08             	pushl  0x8(%ebp)
    3672:	e8 ee 31 00 00       	call   6865 <disp_int>
    3677:	83 c4 10             	add    $0x10,%esp
    367a:	83 ec 0c             	sub    $0xc,%esp
    367d:	68 3a ab 00 00       	push   $0xab3a
    3682:	e8 99 2f 00 00       	call   6620 <disp_str>
    3687:	83 c4 10             	add    $0x10,%esp
    368a:	90                   	nop
    368b:	c9                   	leave  
    368c:	c3                   	ret    

0000368d <put_irq_handler>:
    368d:	55                   	push   %ebp
    368e:	89 e5                	mov    %esp,%ebp
    3690:	83 ec 08             	sub    $0x8,%esp
    3693:	83 ec 0c             	sub    $0xc,%esp
    3696:	ff 75 08             	pushl  0x8(%ebp)
    3699:	e8 3b 30 00 00       	call   66d9 <disable_irq>
    369e:	83 c4 10             	add    $0x10,%esp
    36a1:	8b 45 08             	mov    0x8(%ebp),%eax
    36a4:	8b 55 0c             	mov    0xc(%ebp),%edx
    36a7:	89 14 85 80 b2 04 00 	mov    %edx,0x4b280(,%eax,4)
    36ae:	90                   	nop
    36af:	c9                   	leave  
    36b0:	c3                   	ret    

000036b1 <init_prot>:
    36b1:	55                   	push   %ebp
    36b2:	89 e5                	mov    %esp,%ebp
    36b4:	83 ec 18             	sub    $0x18,%esp
    36b7:	e8 c5 fe ff ff       	call   3581 <init_8259A>
    36bc:	6a 00                	push   $0x0
    36be:	68 44 13 00 00       	push   $0x1344
    36c3:	68 8e 00 00 00       	push   $0x8e
    36c8:	6a 00                	push   $0x0
    36ca:	e8 8e 03 00 00       	call   3a5d <init_idt_desc>
    36cf:	83 c4 10             	add    $0x10,%esp
    36d2:	6a 00                	push   $0x0
    36d4:	68 4a 13 00 00       	push   $0x134a
    36d9:	68 8e 00 00 00       	push   $0x8e
    36de:	6a 01                	push   $0x1
    36e0:	e8 78 03 00 00       	call   3a5d <init_idt_desc>
    36e5:	83 c4 10             	add    $0x10,%esp
    36e8:	6a 00                	push   $0x0
    36ea:	68 50 13 00 00       	push   $0x1350
    36ef:	68 8e 00 00 00       	push   $0x8e
    36f4:	6a 02                	push   $0x2
    36f6:	e8 62 03 00 00       	call   3a5d <init_idt_desc>
    36fb:	83 c4 10             	add    $0x10,%esp
    36fe:	6a 03                	push   $0x3
    3700:	68 56 13 00 00       	push   $0x1356
    3705:	68 8e 00 00 00       	push   $0x8e
    370a:	6a 03                	push   $0x3
    370c:	e8 4c 03 00 00       	call   3a5d <init_idt_desc>
    3711:	83 c4 10             	add    $0x10,%esp
    3714:	6a 03                	push   $0x3
    3716:	68 5c 13 00 00       	push   $0x135c
    371b:	68 8e 00 00 00       	push   $0x8e
    3720:	6a 04                	push   $0x4
    3722:	e8 36 03 00 00       	call   3a5d <init_idt_desc>
    3727:	83 c4 10             	add    $0x10,%esp
    372a:	6a 00                	push   $0x0
    372c:	68 62 13 00 00       	push   $0x1362
    3731:	68 8e 00 00 00       	push   $0x8e
    3736:	6a 05                	push   $0x5
    3738:	e8 20 03 00 00       	call   3a5d <init_idt_desc>
    373d:	83 c4 10             	add    $0x10,%esp
    3740:	6a 00                	push   $0x0
    3742:	68 68 13 00 00       	push   $0x1368
    3747:	68 8e 00 00 00       	push   $0x8e
    374c:	6a 06                	push   $0x6
    374e:	e8 0a 03 00 00       	call   3a5d <init_idt_desc>
    3753:	83 c4 10             	add    $0x10,%esp
    3756:	6a 00                	push   $0x0
    3758:	68 6e 13 00 00       	push   $0x136e
    375d:	68 8e 00 00 00       	push   $0x8e
    3762:	6a 07                	push   $0x7
    3764:	e8 f4 02 00 00       	call   3a5d <init_idt_desc>
    3769:	83 c4 10             	add    $0x10,%esp
    376c:	6a 00                	push   $0x0
    376e:	68 74 13 00 00       	push   $0x1374
    3773:	68 8e 00 00 00       	push   $0x8e
    3778:	6a 08                	push   $0x8
    377a:	e8 de 02 00 00       	call   3a5d <init_idt_desc>
    377f:	83 c4 10             	add    $0x10,%esp
    3782:	6a 00                	push   $0x0
    3784:	68 78 13 00 00       	push   $0x1378
    3789:	68 8e 00 00 00       	push   $0x8e
    378e:	6a 09                	push   $0x9
    3790:	e8 c8 02 00 00       	call   3a5d <init_idt_desc>
    3795:	83 c4 10             	add    $0x10,%esp
    3798:	6a 00                	push   $0x0
    379a:	68 7e 13 00 00       	push   $0x137e
    379f:	68 8e 00 00 00       	push   $0x8e
    37a4:	6a 0a                	push   $0xa
    37a6:	e8 b2 02 00 00       	call   3a5d <init_idt_desc>
    37ab:	83 c4 10             	add    $0x10,%esp
    37ae:	6a 00                	push   $0x0
    37b0:	68 82 13 00 00       	push   $0x1382
    37b5:	68 8e 00 00 00       	push   $0x8e
    37ba:	6a 0b                	push   $0xb
    37bc:	e8 9c 02 00 00       	call   3a5d <init_idt_desc>
    37c1:	83 c4 10             	add    $0x10,%esp
    37c4:	6a 00                	push   $0x0
    37c6:	68 86 13 00 00       	push   $0x1386
    37cb:	68 8e 00 00 00       	push   $0x8e
    37d0:	6a 0c                	push   $0xc
    37d2:	e8 86 02 00 00       	call   3a5d <init_idt_desc>
    37d7:	83 c4 10             	add    $0x10,%esp
    37da:	6a 00                	push   $0x0
    37dc:	68 8a 13 00 00       	push   $0x138a
    37e1:	68 8e 00 00 00       	push   $0x8e
    37e6:	6a 0d                	push   $0xd
    37e8:	e8 70 02 00 00       	call   3a5d <init_idt_desc>
    37ed:	83 c4 10             	add    $0x10,%esp
    37f0:	6a 00                	push   $0x0
    37f2:	68 8e 13 00 00       	push   $0x138e
    37f7:	68 8e 00 00 00       	push   $0x8e
    37fc:	6a 0e                	push   $0xe
    37fe:	e8 5a 02 00 00       	call   3a5d <init_idt_desc>
    3803:	83 c4 10             	add    $0x10,%esp
    3806:	6a 00                	push   $0x0
    3808:	68 92 13 00 00       	push   $0x1392
    380d:	68 8e 00 00 00       	push   $0x8e
    3812:	6a 10                	push   $0x10
    3814:	e8 44 02 00 00       	call   3a5d <init_idt_desc>
    3819:	83 c4 10             	add    $0x10,%esp
    381c:	6a 00                	push   $0x0
    381e:	68 50 10 00 00       	push   $0x1050
    3823:	68 8e 00 00 00       	push   $0x8e
    3828:	6a 20                	push   $0x20
    382a:	e8 2e 02 00 00       	call   3a5d <init_idt_desc>
    382f:	83 c4 10             	add    $0x10,%esp
    3832:	6a 00                	push   $0x0
    3834:	68 80 10 00 00       	push   $0x1080
    3839:	68 8e 00 00 00       	push   $0x8e
    383e:	6a 21                	push   $0x21
    3840:	e8 18 02 00 00       	call   3a5d <init_idt_desc>
    3845:	83 c4 10             	add    $0x10,%esp
    3848:	6a 00                	push   $0x0
    384a:	68 b0 10 00 00       	push   $0x10b0
    384f:	68 8e 00 00 00       	push   $0x8e
    3854:	6a 22                	push   $0x22
    3856:	e8 02 02 00 00       	call   3a5d <init_idt_desc>
    385b:	83 c4 10             	add    $0x10,%esp
    385e:	6a 00                	push   $0x0
    3860:	68 e0 10 00 00       	push   $0x10e0
    3865:	68 8e 00 00 00       	push   $0x8e
    386a:	6a 23                	push   $0x23
    386c:	e8 ec 01 00 00       	call   3a5d <init_idt_desc>
    3871:	83 c4 10             	add    $0x10,%esp
    3874:	6a 00                	push   $0x0
    3876:	68 10 11 00 00       	push   $0x1110
    387b:	68 8e 00 00 00       	push   $0x8e
    3880:	6a 24                	push   $0x24
    3882:	e8 d6 01 00 00       	call   3a5d <init_idt_desc>
    3887:	83 c4 10             	add    $0x10,%esp
    388a:	6a 00                	push   $0x0
    388c:	68 40 11 00 00       	push   $0x1140
    3891:	68 8e 00 00 00       	push   $0x8e
    3896:	6a 25                	push   $0x25
    3898:	e8 c0 01 00 00       	call   3a5d <init_idt_desc>
    389d:	83 c4 10             	add    $0x10,%esp
    38a0:	6a 00                	push   $0x0
    38a2:	68 70 11 00 00       	push   $0x1170
    38a7:	68 8e 00 00 00       	push   $0x8e
    38ac:	6a 26                	push   $0x26
    38ae:	e8 aa 01 00 00       	call   3a5d <init_idt_desc>
    38b3:	83 c4 10             	add    $0x10,%esp
    38b6:	6a 00                	push   $0x0
    38b8:	68 a0 11 00 00       	push   $0x11a0
    38bd:	68 8e 00 00 00       	push   $0x8e
    38c2:	6a 27                	push   $0x27
    38c4:	e8 94 01 00 00       	call   3a5d <init_idt_desc>
    38c9:	83 c4 10             	add    $0x10,%esp
    38cc:	6a 00                	push   $0x0
    38ce:	68 d0 11 00 00       	push   $0x11d0
    38d3:	68 8e 00 00 00       	push   $0x8e
    38d8:	6a 28                	push   $0x28
    38da:	e8 7e 01 00 00       	call   3a5d <init_idt_desc>
    38df:	83 c4 10             	add    $0x10,%esp
    38e2:	6a 00                	push   $0x0
    38e4:	68 00 12 00 00       	push   $0x1200
    38e9:	68 8e 00 00 00       	push   $0x8e
    38ee:	6a 29                	push   $0x29
    38f0:	e8 68 01 00 00       	call   3a5d <init_idt_desc>
    38f5:	83 c4 10             	add    $0x10,%esp
    38f8:	6a 00                	push   $0x0
    38fa:	68 30 12 00 00       	push   $0x1230
    38ff:	68 8e 00 00 00       	push   $0x8e
    3904:	6a 2a                	push   $0x2a
    3906:	e8 52 01 00 00       	call   3a5d <init_idt_desc>
    390b:	83 c4 10             	add    $0x10,%esp
    390e:	6a 00                	push   $0x0
    3910:	68 60 12 00 00       	push   $0x1260
    3915:	68 8e 00 00 00       	push   $0x8e
    391a:	6a 2b                	push   $0x2b
    391c:	e8 3c 01 00 00       	call   3a5d <init_idt_desc>
    3921:	83 c4 10             	add    $0x10,%esp
    3924:	6a 00                	push   $0x0
    3926:	68 90 12 00 00       	push   $0x1290
    392b:	68 8e 00 00 00       	push   $0x8e
    3930:	6a 2c                	push   $0x2c
    3932:	e8 26 01 00 00       	call   3a5d <init_idt_desc>
    3937:	83 c4 10             	add    $0x10,%esp
    393a:	6a 00                	push   $0x0
    393c:	68 c0 12 00 00       	push   $0x12c0
    3941:	68 8e 00 00 00       	push   $0x8e
    3946:	6a 2d                	push   $0x2d
    3948:	e8 10 01 00 00       	call   3a5d <init_idt_desc>
    394d:	83 c4 10             	add    $0x10,%esp
    3950:	6a 00                	push   $0x0
    3952:	68 f0 12 00 00       	push   $0x12f0
    3957:	68 8e 00 00 00       	push   $0x8e
    395c:	6a 2e                	push   $0x2e
    395e:	e8 fa 00 00 00       	call   3a5d <init_idt_desc>
    3963:	83 c4 10             	add    $0x10,%esp
    3966:	6a 00                	push   $0x0
    3968:	68 20 13 00 00       	push   $0x1320
    396d:	68 8e 00 00 00       	push   $0x8e
    3972:	6a 2f                	push   $0x2f
    3974:	e8 e4 00 00 00       	call   3a5d <init_idt_desc>
    3979:	83 c4 10             	add    $0x10,%esp
    397c:	6a 03                	push   $0x3
    397e:	68 db 13 00 00       	push   $0x13db
    3983:	68 8e 00 00 00       	push   $0x8e
    3988:	68 90 00 00 00       	push   $0x90
    398d:	e8 cb 00 00 00       	call   3a5d <init_idt_desc>
    3992:	83 c4 10             	add    $0x10,%esp
    3995:	83 ec 04             	sub    $0x4,%esp
    3998:	6a 68                	push   $0x68
    399a:	6a 00                	push   $0x0
    399c:	68 60 a4 04 00       	push   $0x4a460
    39a1:	e8 63 2f 00 00       	call   6909 <memset>
    39a6:	83 c4 10             	add    $0x10,%esp
    39a9:	c7 05 68 a4 04 00 10 	movl   $0x10,0x4a468
    39b0:	00 00 00 
    39b3:	83 ec 0c             	sub    $0xc,%esp
    39b6:	6a 10                	push   $0x10
    39b8:	e8 11 01 00 00       	call   3ace <seg2phys>
    39bd:	83 c4 10             	add    $0x10,%esp
    39c0:	ba 60 a4 04 00       	mov    $0x4a460,%edx
    39c5:	01 d0                	add    %edx,%eax
    39c7:	68 89 00 00 00       	push   $0x89
    39cc:	6a 67                	push   $0x67
    39ce:	50                   	push   %eax
    39cf:	68 e0 93 04 00       	push   $0x493e0
    39d4:	e8 44 01 00 00       	call   3b1d <init_descriptor>
    39d9:	83 c4 10             	add    $0x10,%esp
    39dc:	66 c7 05 c6 a4 04 00 	movw   $0x68,0x4a4c6
    39e3:	68 00 
    39e5:	c7 45 f0 e0 b2 04 00 	movl   $0x4b2e0,-0x10(%ebp)
    39ec:	66 c7 45 ee 28 00    	movw   $0x28,-0x12(%ebp)
    39f2:	c7 45 f4 00 00 00 00 	movl   $0x0,-0xc(%ebp)
    39f9:	eb 59                	jmp    3a54 <init_prot+0x3a3>
    39fb:	83 ec 0c             	sub    $0xc,%esp
    39fe:	6a 10                	push   $0x10
    3a00:	e8 c9 00 00 00       	call   3ace <seg2phys>
    3a05:	83 c4 10             	add    $0x10,%esp
    3a08:	89 c2                	mov    %eax,%edx
    3a0a:	8b 45 f4             	mov    -0xc(%ebp),%eax
    3a0d:	69 c0 94 01 00 00    	imul   $0x194,%eax,%eax
    3a13:	83 c0 40             	add    $0x40,%eax
    3a16:	05 e0 b2 04 00       	add    $0x4b2e0,%eax
    3a1b:	83 c0 0a             	add    $0xa,%eax
    3a1e:	01 c2                	add    %eax,%edx
    3a20:	0f b7 45 ee          	movzwl -0x12(%ebp),%eax
    3a24:	66 c1 e8 03          	shr    $0x3,%ax
    3a28:	0f b7 c0             	movzwl %ax,%eax
    3a2b:	c1 e0 03             	shl    $0x3,%eax
    3a2e:	05 c0 93 04 00       	add    $0x493c0,%eax
    3a33:	68 82 00 00 00       	push   $0x82
    3a38:	6a 0f                	push   $0xf
    3a3a:	52                   	push   %edx
    3a3b:	50                   	push   %eax
    3a3c:	e8 dc 00 00 00       	call   3b1d <init_descriptor>
    3a41:	83 c4 10             	add    $0x10,%esp
    3a44:	81 45 f0 94 01 00 00 	addl   $0x194,-0x10(%ebp)
    3a4b:	66 83 45 ee 08       	addw   $0x8,-0x12(%ebp)
    3a50:	83 45 f4 01          	addl   $0x1,-0xc(%ebp)
    3a54:	83 7d f4 06          	cmpl   $0x6,-0xc(%ebp)
    3a58:	7e a1                	jle    39fb <init_prot+0x34a>
    3a5a:	90                   	nop
    3a5b:	c9                   	leave  
    3a5c:	c3                   	ret    

00003a5d <init_idt_desc>:
    3a5d:	55                   	push   %ebp
    3a5e:	89 e5                	mov    %esp,%ebp
    3a60:	83 ec 1c             	sub    $0x1c,%esp
    3a63:	8b 4d 08             	mov    0x8(%ebp),%ecx
    3a66:	8b 55 0c             	mov    0xc(%ebp),%edx
    3a69:	8b 45 14             	mov    0x14(%ebp),%eax
    3a6c:	88 4d ec             	mov    %cl,-0x14(%ebp)
    3a6f:	88 55 e8             	mov    %dl,-0x18(%ebp)
    3a72:	88 45 e4             	mov    %al,-0x1c(%ebp)
    3a75:	0f b6 45 ec          	movzbl -0x14(%ebp),%eax
    3a79:	c1 e0 03             	shl    $0x3,%eax
    3a7c:	05 40 a8 04 00       	add    $0x4a840,%eax
    3a81:	89 45 fc             	mov    %eax,-0x4(%ebp)
    3a84:	8b 45 10             	mov    0x10(%ebp),%eax
    3a87:	89 45 f8             	mov    %eax,-0x8(%ebp)
    3a8a:	8b 45 f8             	mov    -0x8(%ebp),%eax
    3a8d:	89 c2                	mov    %eax,%edx
    3a8f:	8b 45 fc             	mov    -0x4(%ebp),%eax
    3a92:	66 89 10             	mov    %dx,(%eax)
    3a95:	8b 45 fc             	mov    -0x4(%ebp),%eax
    3a98:	66 c7 40 02 08 00    	movw   $0x8,0x2(%eax)
    3a9e:	8b 45 fc             	mov    -0x4(%ebp),%eax
    3aa1:	c6 40 04 00          	movb   $0x0,0x4(%eax)
    3aa5:	0f b6 45 e4          	movzbl -0x1c(%ebp),%eax
    3aa9:	c1 e0 05             	shl    $0x5,%eax
    3aac:	89 c2                	mov    %eax,%edx
    3aae:	0f b6 45 e8          	movzbl -0x18(%ebp),%eax
    3ab2:	09 d0                	or     %edx,%eax
    3ab4:	89 c2                	mov    %eax,%edx
    3ab6:	8b 45 fc             	mov    -0x4(%ebp),%eax
    3ab9:	88 50 05             	mov    %dl,0x5(%eax)
    3abc:	8b 45 f8             	mov    -0x8(%ebp),%eax
    3abf:	c1 e8 10             	shr    $0x10,%eax
    3ac2:	89 c2                	mov    %eax,%edx
    3ac4:	8b 45 fc             	mov    -0x4(%ebp),%eax
    3ac7:	66 89 50 06          	mov    %dx,0x6(%eax)
    3acb:	90                   	nop
    3acc:	c9                   	leave  
    3acd:	c3                   	ret    

00003ace <seg2phys>:
    3ace:	55                   	push   %ebp
    3acf:	89 e5                	mov    %esp,%ebp
    3ad1:	83 ec 14             	sub    $0x14,%esp
    3ad4:	8b 45 08             	mov    0x8(%ebp),%eax
    3ad7:	66 89 45 ec          	mov    %ax,-0x14(%ebp)
    3adb:	0f b7 45 ec          	movzwl -0x14(%ebp),%eax
    3adf:	66 c1 e8 03          	shr    $0x3,%ax
    3ae3:	0f b7 c0             	movzwl %ax,%eax
    3ae6:	c1 e0 03             	shl    $0x3,%eax
    3ae9:	05 c0 93 04 00       	add    $0x493c0,%eax
    3aee:	89 45 fc             	mov    %eax,-0x4(%ebp)
    3af1:	8b 45 fc             	mov    -0x4(%ebp),%eax
    3af4:	0f b6 40 07          	movzbl 0x7(%eax),%eax
    3af8:	0f b6 c0             	movzbl %al,%eax
    3afb:	c1 e0 18             	shl    $0x18,%eax
    3afe:	89 c2                	mov    %eax,%edx
    3b00:	8b 45 fc             	mov    -0x4(%ebp),%eax
    3b03:	0f b6 40 04          	movzbl 0x4(%eax),%eax
    3b07:	0f b6 c0             	movzbl %al,%eax
    3b0a:	c1 e0 10             	shl    $0x10,%eax
    3b0d:	09 c2                	or     %eax,%edx
    3b0f:	8b 45 fc             	mov    -0x4(%ebp),%eax
    3b12:	0f b7 40 02          	movzwl 0x2(%eax),%eax
    3b16:	0f b7 c0             	movzwl %ax,%eax
    3b19:	09 d0                	or     %edx,%eax
    3b1b:	c9                   	leave  
    3b1c:	c3                   	ret    

00003b1d <init_descriptor>:
    3b1d:	55                   	push   %ebp
    3b1e:	89 e5                	mov    %esp,%ebp
    3b20:	83 ec 04             	sub    $0x4,%esp
    3b23:	8b 45 14             	mov    0x14(%ebp),%eax
    3b26:	66 89 45 fc          	mov    %ax,-0x4(%ebp)
    3b2a:	8b 45 10             	mov    0x10(%ebp),%eax
    3b2d:	89 c2                	mov    %eax,%edx
    3b2f:	8b 45 08             	mov    0x8(%ebp),%eax
    3b32:	66 89 10             	mov    %dx,(%eax)
    3b35:	8b 45 0c             	mov    0xc(%ebp),%eax
    3b38:	89 c2                	mov    %eax,%edx
    3b3a:	8b 45 08             	mov    0x8(%ebp),%eax
    3b3d:	66 89 50 02          	mov    %dx,0x2(%eax)
    3b41:	8b 45 0c             	mov    0xc(%ebp),%eax
    3b44:	c1 e8 10             	shr    $0x10,%eax
    3b47:	89 c2                	mov    %eax,%edx
    3b49:	8b 45 08             	mov    0x8(%ebp),%eax
    3b4c:	88 50 04             	mov    %dl,0x4(%eax)
    3b4f:	0f b7 45 fc          	movzwl -0x4(%ebp),%eax
    3b53:	89 c2                	mov    %eax,%edx
    3b55:	8b 45 08             	mov    0x8(%ebp),%eax
    3b58:	88 50 05             	mov    %dl,0x5(%eax)
    3b5b:	8b 45 10             	mov    0x10(%ebp),%eax
    3b5e:	c1 e8 10             	shr    $0x10,%eax
    3b61:	83 e0 0f             	and    $0xf,%eax
    3b64:	89 c2                	mov    %eax,%edx
    3b66:	0f b7 45 fc          	movzwl -0x4(%ebp),%eax
    3b6a:	66 c1 e8 08          	shr    $0x8,%ax
    3b6e:	83 e0 f0             	and    $0xfffffff0,%eax
    3b71:	09 c2                	or     %eax,%edx
    3b73:	8b 45 08             	mov    0x8(%ebp),%eax
    3b76:	88 50 06             	mov    %dl,0x6(%eax)
    3b79:	8b 45 0c             	mov    0xc(%ebp),%eax
    3b7c:	c1 e8 18             	shr    $0x18,%eax
    3b7f:	89 c2                	mov    %eax,%edx
    3b81:	8b 45 08             	mov    0x8(%ebp),%eax
    3b84:	88 50 07             	mov    %dl,0x7(%eax)
    3b87:	90                   	nop
    3b88:	c9                   	leave  
    3b89:	c3                   	ret    

00003b8a <exception_handler>:
    3b8a:	55                   	push   %ebp
    3b8b:	89 e5                	mov    %esp,%ebp
    3b8d:	57                   	push   %edi
    3b8e:	56                   	push   %esi
    3b8f:	53                   	push   %ebx
    3b90:	81 ec 1c 05 00 00    	sub    $0x51c,%esp
    3b96:	c7 45 e0 74 00 00 00 	movl   $0x74,-0x20(%ebp)
    3b9d:	8d 85 e0 fa ff ff    	lea    -0x520(%ebp),%eax
    3ba3:	bb 80 ab 00 00       	mov    $0xab80,%ebx
    3ba8:	ba 40 01 00 00       	mov    $0x140,%edx
    3bad:	89 c7                	mov    %eax,%edi
    3baf:	89 de                	mov    %ebx,%esi
    3bb1:	89 d1                	mov    %edx,%ecx
    3bb3:	f3 a5                	rep movsl %ds:(%esi),%es:(%edi)
    3bb5:	c7 05 24 a8 04 00 00 	movl   $0x0,0x4a824
    3bbc:	00 00 00 
    3bbf:	c7 45 e4 00 00 00 00 	movl   $0x0,-0x1c(%ebp)
    3bc6:	eb 14                	jmp    3bdc <exception_handler+0x52>
    3bc8:	83 ec 0c             	sub    $0xc,%esp
    3bcb:	68 40 ab 00 00       	push   $0xab40
    3bd0:	e8 4b 2a 00 00       	call   6620 <disp_str>
    3bd5:	83 c4 10             	add    $0x10,%esp
    3bd8:	83 45 e4 01          	addl   $0x1,-0x1c(%ebp)
    3bdc:	81 7d e4 8f 01 00 00 	cmpl   $0x18f,-0x1c(%ebp)
    3be3:	7e e3                	jle    3bc8 <exception_handler+0x3e>
    3be5:	c7 05 24 a8 04 00 00 	movl   $0x0,0x4a824
    3bec:	00 00 00 
    3bef:	83 ec 08             	sub    $0x8,%esp
    3bf2:	ff 75 e0             	pushl  -0x20(%ebp)
    3bf5:	68 42 ab 00 00       	push   $0xab42
    3bfa:	e8 5f 2a 00 00       	call   665e <disp_color_str>
    3bff:	83 c4 10             	add    $0x10,%esp
    3c02:	8d 85 e0 fa ff ff    	lea    -0x520(%ebp),%eax
    3c08:	8b 55 08             	mov    0x8(%ebp),%edx
    3c0b:	c1 e2 06             	shl    $0x6,%edx
    3c0e:	01 d0                	add    %edx,%eax
    3c10:	83 ec 08             	sub    $0x8,%esp
    3c13:	ff 75 e0             	pushl  -0x20(%ebp)
    3c16:	50                   	push   %eax
    3c17:	e8 42 2a 00 00       	call   665e <disp_color_str>
    3c1c:	83 c4 10             	add    $0x10,%esp
    3c1f:	83 ec 08             	sub    $0x8,%esp
    3c22:	ff 75 e0             	pushl  -0x20(%ebp)
    3c25:	68 52 ab 00 00       	push   $0xab52
    3c2a:	e8 2f 2a 00 00       	call   665e <disp_color_str>
    3c2f:	83 c4 10             	add    $0x10,%esp
    3c32:	83 ec 08             	sub    $0x8,%esp
    3c35:	ff 75 e0             	pushl  -0x20(%ebp)
    3c38:	68 55 ab 00 00       	push   $0xab55
    3c3d:	e8 1c 2a 00 00       	call   665e <disp_color_str>
    3c42:	83 c4 10             	add    $0x10,%esp
    3c45:	83 ec 0c             	sub    $0xc,%esp
    3c48:	ff 75 18             	pushl  0x18(%ebp)
    3c4b:	e8 15 2c 00 00       	call   6865 <disp_int>
    3c50:	83 c4 10             	add    $0x10,%esp
    3c53:	83 ec 08             	sub    $0x8,%esp
    3c56:	ff 75 e0             	pushl  -0x20(%ebp)
    3c59:	68 5d ab 00 00       	push   $0xab5d
    3c5e:	e8 fb 29 00 00       	call   665e <disp_color_str>
    3c63:	83 c4 10             	add    $0x10,%esp
    3c66:	83 ec 0c             	sub    $0xc,%esp
    3c69:	ff 75 14             	pushl  0x14(%ebp)
    3c6c:	e8 f4 2b 00 00       	call   6865 <disp_int>
    3c71:	83 c4 10             	add    $0x10,%esp
    3c74:	83 ec 08             	sub    $0x8,%esp
    3c77:	ff 75 e0             	pushl  -0x20(%ebp)
    3c7a:	68 61 ab 00 00       	push   $0xab61
    3c7f:	e8 da 29 00 00       	call   665e <disp_color_str>
    3c84:	83 c4 10             	add    $0x10,%esp
    3c87:	83 ec 0c             	sub    $0xc,%esp
    3c8a:	ff 75 10             	pushl  0x10(%ebp)
    3c8d:	e8 d3 2b 00 00       	call   6865 <disp_int>
    3c92:	83 c4 10             	add    $0x10,%esp
    3c95:	83 7d 0c ff          	cmpl   $0xffffffff,0xc(%ebp)
    3c99:	74 21                	je     3cbc <exception_handler+0x132>
    3c9b:	83 ec 08             	sub    $0x8,%esp
    3c9e:	ff 75 e0             	pushl  -0x20(%ebp)
    3ca1:	68 66 ab 00 00       	push   $0xab66
    3ca6:	e8 b3 29 00 00       	call   665e <disp_color_str>
    3cab:	83 c4 10             	add    $0x10,%esp
    3cae:	83 ec 0c             	sub    $0xc,%esp
    3cb1:	ff 75 0c             	pushl  0xc(%ebp)
    3cb4:	e8 ac 2b 00 00       	call   6865 <disp_int>
    3cb9:	83 c4 10             	add    $0x10,%esp
    3cbc:	90                   	nop
    3cbd:	8d 65 f4             	lea    -0xc(%ebp),%esp
    3cc0:	5b                   	pop    %ebx
    3cc1:	5e                   	pop    %esi
    3cc2:	5f                   	pop    %edi
    3cc3:	5d                   	pop    %ebp
    3cc4:	c3                   	ret    

00003cc5 <schedule>:
    3cc5:	55                   	push   %ebp
    3cc6:	89 e5                	mov    %esp,%ebp
    3cc8:	83 ec 10             	sub    $0x10,%esp
    3ccb:	c7 45 f8 00 00 00 00 	movl   $0x0,-0x8(%ebp)
    3cd2:	eb 74                	jmp    3d48 <schedule+0x83>
    3cd4:	c7 45 fc e0 b2 04 00 	movl   $0x4b2e0,-0x4(%ebp)
    3cdb:	eb 2d                	jmp    3d0a <schedule+0x45>
    3cdd:	8b 45 fc             	mov    -0x4(%ebp),%eax
    3ce0:	8b 40 78             	mov    0x78(%eax),%eax
    3ce3:	85 c0                	test   %eax,%eax
    3ce5:	75 1c                	jne    3d03 <schedule+0x3e>
    3ce7:	8b 45 fc             	mov    -0x4(%ebp),%eax
    3cea:	8b 40 5c             	mov    0x5c(%eax),%eax
    3ced:	39 45 f8             	cmp    %eax,-0x8(%ebp)
    3cf0:	7d 11                	jge    3d03 <schedule+0x3e>
    3cf2:	8b 45 fc             	mov    -0x4(%ebp),%eax
    3cf5:	8b 40 5c             	mov    0x5c(%eax),%eax
    3cf8:	89 45 f8             	mov    %eax,-0x8(%ebp)
    3cfb:	8b 45 fc             	mov    -0x4(%ebp),%eax
    3cfe:	a3 c0 b2 04 00       	mov    %eax,0x4b2c0
    3d03:	81 45 fc 94 01 00 00 	addl   $0x194,-0x4(%ebp)
    3d0a:	81 7d fc 58 bc 04 00 	cmpl   $0x4bc58,-0x4(%ebp)
    3d11:	76 ca                	jbe    3cdd <schedule+0x18>
    3d13:	83 7d f8 00          	cmpl   $0x0,-0x8(%ebp)
    3d17:	75 2f                	jne    3d48 <schedule+0x83>
    3d19:	c7 45 fc e0 b2 04 00 	movl   $0x4b2e0,-0x4(%ebp)
    3d20:	eb 1d                	jmp    3d3f <schedule+0x7a>
    3d22:	8b 45 fc             	mov    -0x4(%ebp),%eax
    3d25:	8b 40 78             	mov    0x78(%eax),%eax
    3d28:	85 c0                	test   %eax,%eax
    3d2a:	75 0c                	jne    3d38 <schedule+0x73>
    3d2c:	8b 45 fc             	mov    -0x4(%ebp),%eax
    3d2f:	8b 50 60             	mov    0x60(%eax),%edx
    3d32:	8b 45 fc             	mov    -0x4(%ebp),%eax
    3d35:	89 50 5c             	mov    %edx,0x5c(%eax)
    3d38:	81 45 fc 94 01 00 00 	addl   $0x194,-0x4(%ebp)
    3d3f:	81 7d fc 58 bc 04 00 	cmpl   $0x4bc58,-0x4(%ebp)
    3d46:	76 da                	jbe    3d22 <schedule+0x5d>
    3d48:	83 7d f8 00          	cmpl   $0x0,-0x8(%ebp)
    3d4c:	74 86                	je     3cd4 <schedule+0xf>
    3d4e:	90                   	nop
    3d4f:	c9                   	leave  
    3d50:	c3                   	ret    

00003d51 <sys_sendrec>:
    3d51:	55                   	push   %ebp
    3d52:	89 e5                	mov    %esp,%ebp
    3d54:	83 ec 18             	sub    $0x18,%esp
    3d57:	a1 a0 93 04 00       	mov    0x493a0,%eax
    3d5c:	85 c0                	test   %eax,%eax
    3d5e:	74 19                	je     3d79 <sys_sendrec+0x28>
    3d60:	6a 46                	push   $0x46
    3d62:	68 80 b0 00 00       	push   $0xb080
    3d67:	68 80 b0 00 00       	push   $0xb080
    3d6c:	68 8e b0 00 00       	push   $0xb08e
    3d71:	e8 3d 2d 00 00       	call   6ab3 <assertion_failure>
    3d76:	83 c4 10             	add    $0x10,%esp
    3d79:	83 7d 0c 00          	cmpl   $0x0,0xc(%ebp)
    3d7d:	78 06                	js     3d85 <sys_sendrec+0x34>
    3d7f:	83 7d 0c 06          	cmpl   $0x6,0xc(%ebp)
    3d83:	7e 25                	jle    3daa <sys_sendrec+0x59>
    3d85:	83 7d 0c 11          	cmpl   $0x11,0xc(%ebp)
    3d89:	74 1f                	je     3daa <sys_sendrec+0x59>
    3d8b:	83 7d 0c f6          	cmpl   $0xfffffff6,0xc(%ebp)
    3d8f:	74 19                	je     3daa <sys_sendrec+0x59>
    3d91:	6a 49                	push   $0x49
    3d93:	68 80 b0 00 00       	push   $0xb080
    3d98:	68 80 b0 00 00       	push   $0xb080
    3d9d:	68 a0 b0 00 00       	push   $0xb0a0
    3da2:	e8 0c 2d 00 00       	call   6ab3 <assertion_failure>
    3da7:	83 c4 10             	add    $0x10,%esp
    3daa:	c7 45 f4 00 00 00 00 	movl   $0x0,-0xc(%ebp)
    3db1:	8b 45 14             	mov    0x14(%ebp),%eax
    3db4:	2d e0 b2 04 00       	sub    $0x4b2e0,%eax
    3db9:	c1 f8 02             	sar    $0x2,%eax
    3dbc:	69 c0 6d b1 32 7c    	imul   $0x7c32b16d,%eax,%eax
    3dc2:	89 45 f0             	mov    %eax,-0x10(%ebp)
    3dc5:	83 ec 08             	sub    $0x8,%esp
    3dc8:	ff 75 10             	pushl  0x10(%ebp)
    3dcb:	ff 75 f0             	pushl  -0x10(%ebp)
    3dce:	e8 a3 01 00 00       	call   3f76 <va2la>
    3dd3:	83 c4 10             	add    $0x10,%esp
    3dd6:	89 45 ec             	mov    %eax,-0x14(%ebp)
    3dd9:	8b 45 ec             	mov    -0x14(%ebp),%eax
    3ddc:	8b 55 f0             	mov    -0x10(%ebp),%edx
    3ddf:	89 10                	mov    %edx,(%eax)
    3de1:	8b 45 ec             	mov    -0x14(%ebp),%eax
    3de4:	8b 00                	mov    (%eax),%eax
    3de6:	39 45 0c             	cmp    %eax,0xc(%ebp)
    3de9:	75 19                	jne    3e04 <sys_sendrec+0xb3>
    3deb:	6a 50                	push   $0x50
    3ded:	68 80 b0 00 00       	push   $0xb080
    3df2:	68 80 b0 00 00       	push   $0xb080
    3df7:	68 fe b0 00 00       	push   $0xb0fe
    3dfc:	e8 b2 2c 00 00       	call   6ab3 <assertion_failure>
    3e01:	83 c4 10             	add    $0x10,%esp
    3e04:	83 7d 08 01          	cmpl   $0x1,0x8(%ebp)
    3e08:	75 22                	jne    3e2c <sys_sendrec+0xdb>
    3e0a:	83 ec 04             	sub    $0x4,%esp
    3e0d:	ff 75 10             	pushl  0x10(%ebp)
    3e10:	ff 75 0c             	pushl  0xc(%ebp)
    3e13:	ff 75 14             	pushl  0x14(%ebp)
    3e16:	e8 3e 03 00 00       	call   4159 <msg_send>
    3e1b:	83 c4 10             	add    $0x10,%esp
    3e1e:	89 45 f4             	mov    %eax,-0xc(%ebp)
    3e21:	83 7d f4 00          	cmpl   $0x0,-0xc(%ebp)
    3e25:	74 41                	je     3e68 <sys_sendrec+0x117>
    3e27:	8b 45 f4             	mov    -0xc(%ebp),%eax
    3e2a:	eb 41                	jmp    3e6d <sys_sendrec+0x11c>
    3e2c:	83 7d 08 02          	cmpl   $0x2,0x8(%ebp)
    3e30:	75 22                	jne    3e54 <sys_sendrec+0x103>
    3e32:	83 ec 04             	sub    $0x4,%esp
    3e35:	ff 75 10             	pushl  0x10(%ebp)
    3e38:	ff 75 0c             	pushl  0xc(%ebp)
    3e3b:	ff 75 14             	pushl  0x14(%ebp)
    3e3e:	e8 58 07 00 00       	call   459b <msg_receive>
    3e43:	83 c4 10             	add    $0x10,%esp
    3e46:	89 45 f4             	mov    %eax,-0xc(%ebp)
    3e49:	83 7d f4 00          	cmpl   $0x0,-0xc(%ebp)
    3e4d:	74 19                	je     3e68 <sys_sendrec+0x117>
    3e4f:	8b 45 f4             	mov    -0xc(%ebp),%eax
    3e52:	eb 19                	jmp    3e6d <sys_sendrec+0x11c>
    3e54:	6a 02                	push   $0x2
    3e56:	6a 01                	push   $0x1
    3e58:	ff 75 08             	pushl  0x8(%ebp)
    3e5b:	68 18 b1 00 00       	push   $0xb118
    3e60:	e8 62 dd ff ff       	call   1bc7 <panic>
    3e65:	83 c4 10             	add    $0x10,%esp
    3e68:	b8 00 00 00 00       	mov    $0x0,%eax
    3e6d:	c9                   	leave  
    3e6e:	c3                   	ret    

00003e6f <send_recv>:
    3e6f:	55                   	push   %ebp
    3e70:	89 e5                	mov    %esp,%ebp
    3e72:	83 ec 18             	sub    $0x18,%esp
    3e75:	c7 45 f4 00 00 00 00 	movl   $0x0,-0xc(%ebp)
    3e7c:	83 7d 08 02          	cmpl   $0x2,0x8(%ebp)
    3e80:	75 12                	jne    3e94 <send_recv+0x25>
    3e82:	83 ec 04             	sub    $0x4,%esp
    3e85:	6a 30                	push   $0x30
    3e87:	6a 00                	push   $0x0
    3e89:	ff 75 10             	pushl  0x10(%ebp)
    3e8c:	e8 78 2a 00 00       	call   6909 <memset>
    3e91:	83 c4 10             	add    $0x10,%esp
    3e94:	83 7d 08 00          	cmpl   $0x0,0x8(%ebp)
    3e98:	7e 59                	jle    3ef3 <send_recv+0x84>
    3e9a:	83 7d 08 02          	cmpl   $0x2,0x8(%ebp)
    3e9e:	7e 3a                	jle    3eda <send_recv+0x6b>
    3ea0:	83 7d 08 03          	cmpl   $0x3,0x8(%ebp)
    3ea4:	75 4d                	jne    3ef3 <send_recv+0x84>
    3ea6:	83 ec 04             	sub    $0x4,%esp
    3ea9:	ff 75 10             	pushl  0x10(%ebp)
    3eac:	ff 75 0c             	pushl  0xc(%ebp)
    3eaf:	6a 01                	push   $0x1
    3eb1:	e8 6a d5 ff ff       	call   1420 <sendrec>
    3eb6:	83 c4 10             	add    $0x10,%esp
    3eb9:	89 45 f4             	mov    %eax,-0xc(%ebp)
    3ebc:	83 7d f4 00          	cmpl   $0x0,-0xc(%ebp)
    3ec0:	75 61                	jne    3f23 <send_recv+0xb4>
    3ec2:	83 ec 04             	sub    $0x4,%esp
    3ec5:	ff 75 10             	pushl  0x10(%ebp)
    3ec8:	ff 75 0c             	pushl  0xc(%ebp)
    3ecb:	6a 02                	push   $0x2
    3ecd:	e8 4e d5 ff ff       	call   1420 <sendrec>
    3ed2:	83 c4 10             	add    $0x10,%esp
    3ed5:	89 45 f4             	mov    %eax,-0xc(%ebp)
    3ed8:	eb 49                	jmp    3f23 <send_recv+0xb4>
    3eda:	83 ec 04             	sub    $0x4,%esp
    3edd:	ff 75 10             	pushl  0x10(%ebp)
    3ee0:	ff 75 0c             	pushl  0xc(%ebp)
    3ee3:	ff 75 08             	pushl  0x8(%ebp)
    3ee6:	e8 35 d5 ff ff       	call   1420 <sendrec>
    3eeb:	83 c4 10             	add    $0x10,%esp
    3eee:	89 45 f4             	mov    %eax,-0xc(%ebp)
    3ef1:	eb 34                	jmp    3f27 <send_recv+0xb8>
    3ef3:	83 7d 08 03          	cmpl   $0x3,0x8(%ebp)
    3ef7:	74 2d                	je     3f26 <send_recv+0xb7>
    3ef9:	83 7d 08 01          	cmpl   $0x1,0x8(%ebp)
    3efd:	74 27                	je     3f26 <send_recv+0xb7>
    3eff:	83 7d 08 02          	cmpl   $0x2,0x8(%ebp)
    3f03:	74 21                	je     3f26 <send_recv+0xb7>
    3f05:	68 8c 00 00 00       	push   $0x8c
    3f0a:	68 80 b0 00 00       	push   $0xb080
    3f0f:	68 80 b0 00 00       	push   $0xb080
    3f14:	68 54 b1 00 00       	push   $0xb154
    3f19:	e8 95 2b 00 00       	call   6ab3 <assertion_failure>
    3f1e:	83 c4 10             	add    $0x10,%esp
    3f21:	eb 03                	jmp    3f26 <send_recv+0xb7>
    3f23:	90                   	nop
    3f24:	eb 01                	jmp    3f27 <send_recv+0xb8>
    3f26:	90                   	nop
    3f27:	8b 45 f4             	mov    -0xc(%ebp),%eax
    3f2a:	c9                   	leave  
    3f2b:	c3                   	ret    

00003f2c <ldt_seg_linear>:
    3f2c:	55                   	push   %ebp
    3f2d:	89 e5                	mov    %esp,%ebp
    3f2f:	83 ec 10             	sub    $0x10,%esp
    3f32:	8b 45 0c             	mov    0xc(%ebp),%eax
    3f35:	83 c0 08             	add    $0x8,%eax
    3f38:	8d 14 c5 00 00 00 00 	lea    0x0(,%eax,8),%edx
    3f3f:	8b 45 08             	mov    0x8(%ebp),%eax
    3f42:	01 d0                	add    %edx,%eax
    3f44:	83 c0 0a             	add    $0xa,%eax
    3f47:	89 45 fc             	mov    %eax,-0x4(%ebp)
    3f4a:	8b 45 fc             	mov    -0x4(%ebp),%eax
    3f4d:	0f b6 40 07          	movzbl 0x7(%eax),%eax
    3f51:	0f b6 c0             	movzbl %al,%eax
    3f54:	c1 e0 18             	shl    $0x18,%eax
    3f57:	89 c2                	mov    %eax,%edx
    3f59:	8b 45 fc             	mov    -0x4(%ebp),%eax
    3f5c:	0f b6 40 04          	movzbl 0x4(%eax),%eax
    3f60:	0f b6 c0             	movzbl %al,%eax
    3f63:	c1 e0 10             	shl    $0x10,%eax
    3f66:	09 c2                	or     %eax,%edx
    3f68:	8b 45 fc             	mov    -0x4(%ebp),%eax
    3f6b:	0f b7 40 02          	movzwl 0x2(%eax),%eax
    3f6f:	0f b7 c0             	movzwl %ax,%eax
    3f72:	09 d0                	or     %edx,%eax
    3f74:	c9                   	leave  
    3f75:	c3                   	ret    

00003f76 <va2la>:
    3f76:	55                   	push   %ebp
    3f77:	89 e5                	mov    %esp,%ebp
    3f79:	83 ec 18             	sub    $0x18,%esp
    3f7c:	8b 45 08             	mov    0x8(%ebp),%eax
    3f7f:	69 c0 94 01 00 00    	imul   $0x194,%eax,%eax
    3f85:	05 e0 b2 04 00       	add    $0x4b2e0,%eax
    3f8a:	89 45 f4             	mov    %eax,-0xc(%ebp)
    3f8d:	6a 01                	push   $0x1
    3f8f:	ff 75 f4             	pushl  -0xc(%ebp)
    3f92:	e8 95 ff ff ff       	call   3f2c <ldt_seg_linear>
    3f97:	83 c4 08             	add    $0x8,%esp
    3f9a:	89 45 f0             	mov    %eax,-0x10(%ebp)
    3f9d:	8b 55 0c             	mov    0xc(%ebp),%edx
    3fa0:	8b 45 f0             	mov    -0x10(%ebp),%eax
    3fa3:	01 d0                	add    %edx,%eax
    3fa5:	89 45 ec             	mov    %eax,-0x14(%ebp)
    3fa8:	83 7d 08 06          	cmpl   $0x6,0x8(%ebp)
    3fac:	7f 24                	jg     3fd2 <va2la+0x5c>
    3fae:	8b 45 0c             	mov    0xc(%ebp),%eax
    3fb1:	39 45 ec             	cmp    %eax,-0x14(%ebp)
    3fb4:	74 1c                	je     3fd2 <va2la+0x5c>
    3fb6:	68 b9 00 00 00       	push   $0xb9
    3fbb:	68 80 b0 00 00       	push   $0xb080
    3fc0:	68 80 b0 00 00       	push   $0xb080
    3fc5:	68 96 b1 00 00       	push   $0xb196
    3fca:	e8 e4 2a 00 00       	call   6ab3 <assertion_failure>
    3fcf:	83 c4 10             	add    $0x10,%esp
    3fd2:	8b 45 ec             	mov    -0x14(%ebp),%eax
    3fd5:	c9                   	leave  
    3fd6:	c3                   	ret    

00003fd7 <reset_msg>:
    3fd7:	55                   	push   %ebp
    3fd8:	89 e5                	mov    %esp,%ebp
    3fda:	83 ec 08             	sub    $0x8,%esp
    3fdd:	83 ec 04             	sub    $0x4,%esp
    3fe0:	6a 30                	push   $0x30
    3fe2:	6a 00                	push   $0x0
    3fe4:	ff 75 08             	pushl  0x8(%ebp)
    3fe7:	e8 1d 29 00 00       	call   6909 <memset>
    3fec:	83 c4 10             	add    $0x10,%esp
    3fef:	90                   	nop
    3ff0:	c9                   	leave  
    3ff1:	c3                   	ret    

00003ff2 <block>:
    3ff2:	55                   	push   %ebp
    3ff3:	89 e5                	mov    %esp,%ebp
    3ff5:	83 ec 08             	sub    $0x8,%esp
    3ff8:	8b 45 08             	mov    0x8(%ebp),%eax
    3ffb:	8b 40 78             	mov    0x78(%eax),%eax
    3ffe:	85 c0                	test   %eax,%eax
    4000:	75 1c                	jne    401e <block+0x2c>
    4002:	68 da 00 00 00       	push   $0xda
    4007:	68 80 b0 00 00       	push   $0xb080
    400c:	68 80 b0 00 00       	push   $0xb080
    4011:	68 a4 b1 00 00       	push   $0xb1a4
    4016:	e8 98 2a 00 00       	call   6ab3 <assertion_failure>
    401b:	83 c4 10             	add    $0x10,%esp
    401e:	e8 a2 fc ff ff       	call   3cc5 <schedule>
    4023:	90                   	nop
    4024:	c9                   	leave  
    4025:	c3                   	ret    

00004026 <unblock>:
    4026:	55                   	push   %ebp
    4027:	89 e5                	mov    %esp,%ebp
    4029:	83 ec 08             	sub    $0x8,%esp
    402c:	8b 45 08             	mov    0x8(%ebp),%eax
    402f:	8b 40 78             	mov    0x78(%eax),%eax
    4032:	85 c0                	test   %eax,%eax
    4034:	74 1c                	je     4052 <unblock+0x2c>
    4036:	68 e9 00 00 00       	push   $0xe9
    403b:	68 80 b0 00 00       	push   $0xb080
    4040:	68 80 b0 00 00       	push   $0xb080
    4045:	68 af b1 00 00       	push   $0xb1af
    404a:	e8 64 2a 00 00       	call   6ab3 <assertion_failure>
    404f:	83 c4 10             	add    $0x10,%esp
    4052:	90                   	nop
    4053:	c9                   	leave  
    4054:	c3                   	ret    

00004055 <deadlock>:
    4055:	55                   	push   %ebp
    4056:	89 e5                	mov    %esp,%ebp
    4058:	83 ec 18             	sub    $0x18,%esp
    405b:	8b 45 0c             	mov    0xc(%ebp),%eax
    405e:	69 c0 94 01 00 00    	imul   $0x194,%eax,%eax
    4064:	05 e0 b2 04 00       	add    $0x4b2e0,%eax
    4069:	89 45 f4             	mov    %eax,-0xc(%ebp)
    406c:	8b 45 f4             	mov    -0xc(%ebp),%eax
    406f:	8b 40 78             	mov    0x78(%eax),%eax
    4072:	83 e0 02             	and    $0x2,%eax
    4075:	85 c0                	test   %eax,%eax
    4077:	0f 84 d4 00 00 00    	je     4151 <deadlock+0xfc>
    407d:	8b 45 f4             	mov    -0xc(%ebp),%eax
    4080:	8b 80 84 00 00 00    	mov    0x84(%eax),%eax
    4086:	39 45 08             	cmp    %eax,0x8(%ebp)
    4089:	0f 85 a6 00 00 00    	jne    4135 <deadlock+0xe0>
    408f:	8b 45 0c             	mov    0xc(%ebp),%eax
    4092:	69 c0 94 01 00 00    	imul   $0x194,%eax,%eax
    4098:	05 e0 b2 04 00       	add    $0x4b2e0,%eax
    409d:	89 45 f4             	mov    %eax,-0xc(%ebp)
    40a0:	8b 45 f4             	mov    -0xc(%ebp),%eax
    40a3:	83 c0 68             	add    $0x68,%eax
    40a6:	83 ec 08             	sub    $0x8,%esp
    40a9:	50                   	push   %eax
    40aa:	68 bf b1 00 00       	push   $0xb1bf
    40af:	e8 13 22 00 00       	call   62c7 <printl>
    40b4:	83 c4 10             	add    $0x10,%esp
    40b7:	8b 45 f4             	mov    -0xc(%ebp),%eax
    40ba:	8b 40 7c             	mov    0x7c(%eax),%eax
    40bd:	85 c0                	test   %eax,%eax
    40bf:	75 1c                	jne    40dd <deadlock+0x88>
    40c1:	68 05 01 00 00       	push   $0x105
    40c6:	68 80 b0 00 00       	push   $0xb080
    40cb:	68 80 b0 00 00       	push   $0xb080
    40d0:	68 c5 b1 00 00       	push   $0xb1c5
    40d5:	e8 d9 29 00 00       	call   6ab3 <assertion_failure>
    40da:	83 c4 10             	add    $0x10,%esp
    40dd:	8b 45 f4             	mov    -0xc(%ebp),%eax
    40e0:	8b 80 84 00 00 00    	mov    0x84(%eax),%eax
    40e6:	69 c0 94 01 00 00    	imul   $0x194,%eax,%eax
    40ec:	05 e0 b2 04 00       	add    $0x4b2e0,%eax
    40f1:	89 45 f4             	mov    %eax,-0xc(%ebp)
    40f4:	8b 45 f4             	mov    -0xc(%ebp),%eax
    40f7:	83 c0 68             	add    $0x68,%eax
    40fa:	83 ec 08             	sub    $0x8,%esp
    40fd:	50                   	push   %eax
    40fe:	68 ce b1 00 00       	push   $0xb1ce
    4103:	e8 bf 21 00 00       	call   62c7 <printl>
    4108:	83 c4 10             	add    $0x10,%esp
    410b:	8b 45 08             	mov    0x8(%ebp),%eax
    410e:	69 c0 94 01 00 00    	imul   $0x194,%eax,%eax
    4114:	05 e0 b2 04 00       	add    $0x4b2e0,%eax
    4119:	39 45 f4             	cmp    %eax,-0xc(%ebp)
    411c:	75 99                	jne    40b7 <deadlock+0x62>
    411e:	83 ec 0c             	sub    $0xc,%esp
    4121:	68 d3 b1 00 00       	push   $0xb1d3
    4126:	e8 9c 21 00 00       	call   62c7 <printl>
    412b:	83 c4 10             	add    $0x10,%esp
    412e:	b8 01 00 00 00       	mov    $0x1,%eax
    4133:	eb 22                	jmp    4157 <deadlock+0x102>
    4135:	8b 45 f4             	mov    -0xc(%ebp),%eax
    4138:	8b 80 84 00 00 00    	mov    0x84(%eax),%eax
    413e:	69 c0 94 01 00 00    	imul   $0x194,%eax,%eax
    4144:	05 e0 b2 04 00       	add    $0x4b2e0,%eax
    4149:	89 45 f4             	mov    %eax,-0xc(%ebp)
    414c:	e9 1b ff ff ff       	jmp    406c <deadlock+0x17>
    4151:	90                   	nop
    4152:	b8 00 00 00 00       	mov    $0x0,%eax
    4157:	c9                   	leave  
    4158:	c3                   	ret    

00004159 <msg_send>:
    4159:	55                   	push   %ebp
    415a:	89 e5                	mov    %esp,%ebp
    415c:	53                   	push   %ebx
    415d:	83 ec 14             	sub    $0x14,%esp
    4160:	8b 45 08             	mov    0x8(%ebp),%eax
    4163:	89 45 f0             	mov    %eax,-0x10(%ebp)
    4166:	8b 45 0c             	mov    0xc(%ebp),%eax
    4169:	69 c0 94 01 00 00    	imul   $0x194,%eax,%eax
    416f:	05 e0 b2 04 00       	add    $0x4b2e0,%eax
    4174:	89 45 ec             	mov    %eax,-0x14(%ebp)
    4177:	8b 45 f0             	mov    -0x10(%ebp),%eax
    417a:	2d e0 b2 04 00       	sub    $0x4b2e0,%eax
    417f:	c1 f8 02             	sar    $0x2,%eax
    4182:	69 c0 6d b1 32 7c    	imul   $0x7c32b16d,%eax,%eax
    4188:	39 45 0c             	cmp    %eax,0xc(%ebp)
    418b:	75 1c                	jne    41a9 <msg_send+0x50>
    418d:	68 29 01 00 00       	push   $0x129
    4192:	68 80 b0 00 00       	push   $0xb080
    4197:	68 80 b0 00 00       	push   $0xb080
    419c:	68 d7 b1 00 00       	push   $0xb1d7
    41a1:	e8 0d 29 00 00       	call   6ab3 <assertion_failure>
    41a6:	83 c4 10             	add    $0x10,%esp
    41a9:	8b 45 f0             	mov    -0x10(%ebp),%eax
    41ac:	2d e0 b2 04 00       	sub    $0x4b2e0,%eax
    41b1:	c1 f8 02             	sar    $0x2,%eax
    41b4:	69 c0 6d b1 32 7c    	imul   $0x7c32b16d,%eax,%eax
    41ba:	83 ec 08             	sub    $0x8,%esp
    41bd:	ff 75 0c             	pushl  0xc(%ebp)
    41c0:	50                   	push   %eax
    41c1:	e8 8f fe ff ff       	call   4055 <deadlock>
    41c6:	83 c4 10             	add    $0x10,%esp
    41c9:	85 c0                	test   %eax,%eax
    41cb:	74 1e                	je     41eb <msg_send+0x92>
    41cd:	8b 45 ec             	mov    -0x14(%ebp),%eax
    41d0:	8d 50 68             	lea    0x68(%eax),%edx
    41d3:	8b 45 f0             	mov    -0x10(%ebp),%eax
    41d6:	83 c0 68             	add    $0x68,%eax
    41d9:	83 ec 04             	sub    $0x4,%esp
    41dc:	52                   	push   %edx
    41dd:	50                   	push   %eax
    41de:	68 f0 b1 00 00       	push   $0xb1f0
    41e3:	e8 df d9 ff ff       	call   1bc7 <panic>
    41e8:	83 c4 10             	add    $0x10,%esp
    41eb:	8b 45 ec             	mov    -0x14(%ebp),%eax
    41ee:	8b 40 78             	mov    0x78(%eax),%eax
    41f1:	83 e0 04             	and    $0x4,%eax
    41f4:	85 c0                	test   %eax,%eax
    41f6:	0f 84 3e 02 00 00    	je     443a <msg_send+0x2e1>
    41fc:	8b 45 ec             	mov    -0x14(%ebp),%eax
    41ff:	8b 80 80 00 00 00    	mov    0x80(%eax),%eax
    4205:	8b 55 f0             	mov    -0x10(%ebp),%edx
    4208:	81 ea e0 b2 04 00    	sub    $0x4b2e0,%edx
    420e:	c1 fa 02             	sar    $0x2,%edx
    4211:	69 d2 6d b1 32 7c    	imul   $0x7c32b16d,%edx,%edx
    4217:	39 d0                	cmp    %edx,%eax
    4219:	74 12                	je     422d <msg_send+0xd4>
    421b:	8b 45 ec             	mov    -0x14(%ebp),%eax
    421e:	8b 80 80 00 00 00    	mov    0x80(%eax),%eax
    4224:	83 f8 11             	cmp    $0x11,%eax
    4227:	0f 85 0d 02 00 00    	jne    443a <msg_send+0x2e1>
    422d:	8b 45 ec             	mov    -0x14(%ebp),%eax
    4230:	8b 40 7c             	mov    0x7c(%eax),%eax
    4233:	85 c0                	test   %eax,%eax
    4235:	75 1c                	jne    4253 <msg_send+0xfa>
    4237:	68 33 01 00 00       	push   $0x133
    423c:	68 80 b0 00 00       	push   $0xb080
    4241:	68 80 b0 00 00       	push   $0xb080
    4246:	68 04 b2 00 00       	push   $0xb204
    424b:	e8 63 28 00 00       	call   6ab3 <assertion_failure>
    4250:	83 c4 10             	add    $0x10,%esp
    4253:	83 7d 10 00          	cmpl   $0x0,0x10(%ebp)
    4257:	75 1c                	jne    4275 <msg_send+0x11c>
    4259:	68 34 01 00 00       	push   $0x134
    425e:	68 80 b0 00 00       	push   $0xb080
    4263:	68 80 b0 00 00       	push   $0xb080
    4268:	68 12 b2 00 00       	push   $0xb212
    426d:	e8 41 28 00 00       	call   6ab3 <assertion_failure>
    4272:	83 c4 10             	add    $0x10,%esp
    4275:	8b 45 f0             	mov    -0x10(%ebp),%eax
    4278:	2d e0 b2 04 00       	sub    $0x4b2e0,%eax
    427d:	c1 f8 02             	sar    $0x2,%eax
    4280:	69 c0 6d b1 32 7c    	imul   $0x7c32b16d,%eax,%eax
    4286:	83 ec 08             	sub    $0x8,%esp
    4289:	ff 75 10             	pushl  0x10(%ebp)
    428c:	50                   	push   %eax
    428d:	e8 e4 fc ff ff       	call   3f76 <va2la>
    4292:	83 c4 10             	add    $0x10,%esp
    4295:	89 c3                	mov    %eax,%ebx
    4297:	8b 45 ec             	mov    -0x14(%ebp),%eax
    429a:	8b 40 7c             	mov    0x7c(%eax),%eax
    429d:	83 ec 08             	sub    $0x8,%esp
    42a0:	50                   	push   %eax
    42a1:	ff 75 0c             	pushl  0xc(%ebp)
    42a4:	e8 cd fc ff ff       	call   3f76 <va2la>
    42a9:	83 c4 10             	add    $0x10,%esp
    42ac:	83 ec 04             	sub    $0x4,%esp
    42af:	6a 30                	push   $0x30
    42b1:	53                   	push   %ebx
    42b2:	50                   	push   %eax
    42b3:	e8 28 26 00 00       	call   68e0 <memcpy>
    42b8:	83 c4 10             	add    $0x10,%esp
    42bb:	8b 45 ec             	mov    -0x14(%ebp),%eax
    42be:	c7 40 7c 00 00 00 00 	movl   $0x0,0x7c(%eax)
    42c5:	8b 45 ec             	mov    -0x14(%ebp),%eax
    42c8:	8b 40 78             	mov    0x78(%eax),%eax
    42cb:	83 e0 fb             	and    $0xfffffffb,%eax
    42ce:	89 c2                	mov    %eax,%edx
    42d0:	8b 45 ec             	mov    -0x14(%ebp),%eax
    42d3:	89 50 78             	mov    %edx,0x78(%eax)
    42d6:	8b 45 ec             	mov    -0x14(%ebp),%eax
    42d9:	c7 80 80 00 00 00 1b 	movl   $0x1b,0x80(%eax)
    42e0:	00 00 00 
    42e3:	83 ec 0c             	sub    $0xc,%esp
    42e6:	ff 75 ec             	pushl  -0x14(%ebp)
    42e9:	e8 38 fd ff ff       	call   4026 <unblock>
    42ee:	83 c4 10             	add    $0x10,%esp
    42f1:	8b 45 ec             	mov    -0x14(%ebp),%eax
    42f4:	8b 40 78             	mov    0x78(%eax),%eax
    42f7:	85 c0                	test   %eax,%eax
    42f9:	74 1c                	je     4317 <msg_send+0x1be>
    42fb:	68 3e 01 00 00       	push   $0x13e
    4300:	68 80 b0 00 00       	push   $0xb080
    4305:	68 80 b0 00 00       	push   $0xb080
    430a:	68 14 b2 00 00       	push   $0xb214
    430f:	e8 9f 27 00 00       	call   6ab3 <assertion_failure>
    4314:	83 c4 10             	add    $0x10,%esp
    4317:	8b 45 ec             	mov    -0x14(%ebp),%eax
    431a:	8b 40 7c             	mov    0x7c(%eax),%eax
    431d:	85 c0                	test   %eax,%eax
    431f:	74 1c                	je     433d <msg_send+0x1e4>
    4321:	68 3f 01 00 00       	push   $0x13f
    4326:	68 80 b0 00 00       	push   $0xb080
    432b:	68 80 b0 00 00       	push   $0xb080
    4330:	68 29 b2 00 00       	push   $0xb229
    4335:	e8 79 27 00 00       	call   6ab3 <assertion_failure>
    433a:	83 c4 10             	add    $0x10,%esp
    433d:	8b 45 ec             	mov    -0x14(%ebp),%eax
    4340:	8b 80 80 00 00 00    	mov    0x80(%eax),%eax
    4346:	83 f8 1b             	cmp    $0x1b,%eax
    4349:	74 1c                	je     4367 <msg_send+0x20e>
    434b:	68 40 01 00 00       	push   $0x140
    4350:	68 80 b0 00 00       	push   $0xb080
    4355:	68 80 b0 00 00       	push   $0xb080
    435a:	68 3c b2 00 00       	push   $0xb23c
    435f:	e8 4f 27 00 00       	call   6ab3 <assertion_failure>
    4364:	83 c4 10             	add    $0x10,%esp
    4367:	8b 45 ec             	mov    -0x14(%ebp),%eax
    436a:	8b 80 84 00 00 00    	mov    0x84(%eax),%eax
    4370:	83 f8 1b             	cmp    $0x1b,%eax
    4373:	74 1c                	je     4391 <msg_send+0x238>
    4375:	68 41 01 00 00       	push   $0x141
    437a:	68 80 b0 00 00       	push   $0xb080
    437f:	68 80 b0 00 00       	push   $0xb080
    4384:	68 5a b2 00 00       	push   $0xb25a
    4389:	e8 25 27 00 00       	call   6ab3 <assertion_failure>
    438e:	83 c4 10             	add    $0x10,%esp
    4391:	8b 45 f0             	mov    -0x10(%ebp),%eax
    4394:	8b 40 78             	mov    0x78(%eax),%eax
    4397:	85 c0                	test   %eax,%eax
    4399:	74 1c                	je     43b7 <msg_send+0x25e>
    439b:	68 42 01 00 00       	push   $0x142
    43a0:	68 80 b0 00 00       	push   $0xb080
    43a5:	68 80 b0 00 00       	push   $0xb080
    43aa:	68 76 b2 00 00       	push   $0xb276
    43af:	e8 ff 26 00 00       	call   6ab3 <assertion_failure>
    43b4:	83 c4 10             	add    $0x10,%esp
    43b7:	8b 45 f0             	mov    -0x10(%ebp),%eax
    43ba:	8b 40 7c             	mov    0x7c(%eax),%eax
    43bd:	85 c0                	test   %eax,%eax
    43bf:	74 1c                	je     43dd <msg_send+0x284>
    43c1:	68 43 01 00 00       	push   $0x143
    43c6:	68 80 b0 00 00       	push   $0xb080
    43cb:	68 80 b0 00 00       	push   $0xb080
    43d0:	68 8b b2 00 00       	push   $0xb28b
    43d5:	e8 d9 26 00 00       	call   6ab3 <assertion_failure>
    43da:	83 c4 10             	add    $0x10,%esp
    43dd:	8b 45 f0             	mov    -0x10(%ebp),%eax
    43e0:	8b 80 80 00 00 00    	mov    0x80(%eax),%eax
    43e6:	83 f8 1b             	cmp    $0x1b,%eax
    43e9:	74 1c                	je     4407 <msg_send+0x2ae>
    43eb:	68 44 01 00 00       	push   $0x144
    43f0:	68 80 b0 00 00       	push   $0xb080
    43f5:	68 80 b0 00 00       	push   $0xb080
    43fa:	68 9e b2 00 00       	push   $0xb29e
    43ff:	e8 af 26 00 00       	call   6ab3 <assertion_failure>
    4404:	83 c4 10             	add    $0x10,%esp
    4407:	8b 45 f0             	mov    -0x10(%ebp),%eax
    440a:	8b 80 84 00 00 00    	mov    0x84(%eax),%eax
    4410:	83 f8 1b             	cmp    $0x1b,%eax
    4413:	0f 84 78 01 00 00    	je     4591 <msg_send+0x438>
    4419:	68 45 01 00 00       	push   $0x145
    441e:	68 80 b0 00 00       	push   $0xb080
    4423:	68 80 b0 00 00       	push   $0xb080
    4428:	68 bc b2 00 00       	push   $0xb2bc
    442d:	e8 81 26 00 00       	call   6ab3 <assertion_failure>
    4432:	83 c4 10             	add    $0x10,%esp
    4435:	e9 57 01 00 00       	jmp    4591 <msg_send+0x438>
    443a:	8b 45 f0             	mov    -0x10(%ebp),%eax
    443d:	8b 40 78             	mov    0x78(%eax),%eax
    4440:	83 c8 02             	or     $0x2,%eax
    4443:	89 c2                	mov    %eax,%edx
    4445:	8b 45 f0             	mov    -0x10(%ebp),%eax
    4448:	89 50 78             	mov    %edx,0x78(%eax)
    444b:	8b 45 f0             	mov    -0x10(%ebp),%eax
    444e:	8b 40 78             	mov    0x78(%eax),%eax
    4451:	83 f8 02             	cmp    $0x2,%eax
    4454:	74 1c                	je     4472 <msg_send+0x319>
    4456:	68 49 01 00 00       	push   $0x149
    445b:	68 80 b0 00 00       	push   $0xb080
    4460:	68 80 b0 00 00       	push   $0xb080
    4465:	68 d8 b2 00 00       	push   $0xb2d8
    446a:	e8 44 26 00 00       	call   6ab3 <assertion_failure>
    446f:	83 c4 10             	add    $0x10,%esp
    4472:	8b 45 f0             	mov    -0x10(%ebp),%eax
    4475:	8b 55 0c             	mov    0xc(%ebp),%edx
    4478:	89 90 84 00 00 00    	mov    %edx,0x84(%eax)
    447e:	8b 45 f0             	mov    -0x10(%ebp),%eax
    4481:	8b 55 10             	mov    0x10(%ebp),%edx
    4484:	89 50 7c             	mov    %edx,0x7c(%eax)
    4487:	8b 45 ec             	mov    -0x14(%ebp),%eax
    448a:	8b 80 8c 00 00 00    	mov    0x8c(%eax),%eax
    4490:	85 c0                	test   %eax,%eax
    4492:	74 35                	je     44c9 <msg_send+0x370>
    4494:	8b 45 ec             	mov    -0x14(%ebp),%eax
    4497:	8b 80 8c 00 00 00    	mov    0x8c(%eax),%eax
    449d:	89 45 f4             	mov    %eax,-0xc(%ebp)
    44a0:	eb 0c                	jmp    44ae <msg_send+0x355>
    44a2:	8b 45 f4             	mov    -0xc(%ebp),%eax
    44a5:	8b 80 90 00 00 00    	mov    0x90(%eax),%eax
    44ab:	89 45 f4             	mov    %eax,-0xc(%ebp)
    44ae:	8b 45 f4             	mov    -0xc(%ebp),%eax
    44b1:	8b 80 90 00 00 00    	mov    0x90(%eax),%eax
    44b7:	85 c0                	test   %eax,%eax
    44b9:	75 e7                	jne    44a2 <msg_send+0x349>
    44bb:	8b 45 f4             	mov    -0xc(%ebp),%eax
    44be:	8b 55 f0             	mov    -0x10(%ebp),%edx
    44c1:	89 90 90 00 00 00    	mov    %edx,0x90(%eax)
    44c7:	eb 0c                	jmp    44d5 <msg_send+0x37c>
    44c9:	8b 45 ec             	mov    -0x14(%ebp),%eax
    44cc:	8b 55 f0             	mov    -0x10(%ebp),%edx
    44cf:	89 90 8c 00 00 00    	mov    %edx,0x8c(%eax)
    44d5:	8b 45 f0             	mov    -0x10(%ebp),%eax
    44d8:	c7 80 90 00 00 00 00 	movl   $0x0,0x90(%eax)
    44df:	00 00 00 
    44e2:	83 ec 0c             	sub    $0xc,%esp
    44e5:	ff 75 f0             	pushl  -0x10(%ebp)
    44e8:	e8 05 fb ff ff       	call   3ff2 <block>
    44ed:	83 c4 10             	add    $0x10,%esp
    44f0:	8b 45 f0             	mov    -0x10(%ebp),%eax
    44f3:	8b 40 78             	mov    0x78(%eax),%eax
    44f6:	83 f8 02             	cmp    $0x2,%eax
    44f9:	74 1c                	je     4517 <msg_send+0x3be>
    44fb:	68 5c 01 00 00       	push   $0x15c
    4500:	68 80 b0 00 00       	push   $0xb080
    4505:	68 80 b0 00 00       	push   $0xb080
    450a:	68 d8 b2 00 00       	push   $0xb2d8
    450f:	e8 9f 25 00 00       	call   6ab3 <assertion_failure>
    4514:	83 c4 10             	add    $0x10,%esp
    4517:	8b 45 f0             	mov    -0x10(%ebp),%eax
    451a:	8b 40 7c             	mov    0x7c(%eax),%eax
    451d:	85 c0                	test   %eax,%eax
    451f:	75 1c                	jne    453d <msg_send+0x3e4>
    4521:	68 5d 01 00 00       	push   $0x15d
    4526:	68 80 b0 00 00       	push   $0xb080
    452b:	68 80 b0 00 00       	push   $0xb080
    4530:	68 f3 b2 00 00       	push   $0xb2f3
    4535:	e8 79 25 00 00       	call   6ab3 <assertion_failure>
    453a:	83 c4 10             	add    $0x10,%esp
    453d:	8b 45 f0             	mov    -0x10(%ebp),%eax
    4540:	8b 80 80 00 00 00    	mov    0x80(%eax),%eax
    4546:	83 f8 1b             	cmp    $0x1b,%eax
    4549:	74 1c                	je     4567 <msg_send+0x40e>
    454b:	68 5e 01 00 00       	push   $0x15e
    4550:	68 80 b0 00 00       	push   $0xb080
    4555:	68 80 b0 00 00       	push   $0xb080
    455a:	68 9e b2 00 00       	push   $0xb29e
    455f:	e8 4f 25 00 00       	call   6ab3 <assertion_failure>
    4564:	83 c4 10             	add    $0x10,%esp
    4567:	8b 45 f0             	mov    -0x10(%ebp),%eax
    456a:	8b 80 84 00 00 00    	mov    0x84(%eax),%eax
    4570:	39 45 0c             	cmp    %eax,0xc(%ebp)
    4573:	74 1c                	je     4591 <msg_send+0x438>
    4575:	68 5f 01 00 00       	push   $0x15f
    457a:	68 80 b0 00 00       	push   $0xb080
    457f:	68 80 b0 00 00       	push   $0xb080
    4584:	68 06 b3 00 00       	push   $0xb306
    4589:	e8 25 25 00 00       	call   6ab3 <assertion_failure>
    458e:	83 c4 10             	add    $0x10,%esp
    4591:	b8 00 00 00 00       	mov    $0x0,%eax
    4596:	8b 5d fc             	mov    -0x4(%ebp),%ebx
    4599:	c9                   	leave  
    459a:	c3                   	ret    

0000459b <msg_receive>:
    459b:	55                   	push   %ebp
    459c:	89 e5                	mov    %esp,%ebp
    459e:	53                   	push   %ebx
    459f:	83 ec 54             	sub    $0x54,%esp
    45a2:	8b 45 08             	mov    0x8(%ebp),%eax
    45a5:	89 45 e4             	mov    %eax,-0x1c(%ebp)
    45a8:	c7 45 f4 00 00 00 00 	movl   $0x0,-0xc(%ebp)
    45af:	c7 45 f0 00 00 00 00 	movl   $0x0,-0x10(%ebp)
    45b6:	c7 45 ec 00 00 00 00 	movl   $0x0,-0x14(%ebp)
    45bd:	8b 45 e4             	mov    -0x1c(%ebp),%eax
    45c0:	2d e0 b2 04 00       	sub    $0x4b2e0,%eax
    45c5:	c1 f8 02             	sar    $0x2,%eax
    45c8:	69 c0 6d b1 32 7c    	imul   $0x7c32b16d,%eax,%eax
    45ce:	39 45 0c             	cmp    %eax,0xc(%ebp)
    45d1:	75 1c                	jne    45ef <msg_receive+0x54>
    45d3:	68 80 01 00 00       	push   $0x180
    45d8:	68 80 b0 00 00       	push   $0xb080
    45dd:	68 80 b0 00 00       	push   $0xb080
    45e2:	68 20 b3 00 00       	push   $0xb320
    45e7:	e8 c7 24 00 00       	call   6ab3 <assertion_failure>
    45ec:	83 c4 10             	add    $0x10,%esp
    45ef:	8b 45 e4             	mov    -0x1c(%ebp),%eax
    45f2:	8b 80 88 00 00 00    	mov    0x88(%eax),%eax
    45f8:	85 c0                	test   %eax,%eax
    45fa:	0f 84 39 01 00 00    	je     4739 <msg_receive+0x19e>
    4600:	83 7d 0c 11          	cmpl   $0x11,0xc(%ebp)
    4604:	74 0a                	je     4610 <msg_receive+0x75>
    4606:	83 7d 0c f6          	cmpl   $0xfffffff6,0xc(%ebp)
    460a:	0f 85 29 01 00 00    	jne    4739 <msg_receive+0x19e>
    4610:	83 ec 0c             	sub    $0xc,%esp
    4613:	8d 45 b4             	lea    -0x4c(%ebp),%eax
    4616:	50                   	push   %eax
    4617:	e8 bb f9 ff ff       	call   3fd7 <reset_msg>
    461c:	83 c4 10             	add    $0x10,%esp
    461f:	c7 45 b4 f6 ff ff ff 	movl   $0xfffffff6,-0x4c(%ebp)
    4626:	c7 45 b8 01 00 00 00 	movl   $0x1,-0x48(%ebp)
    462d:	83 7d 10 00          	cmpl   $0x0,0x10(%ebp)
    4631:	75 1c                	jne    464f <msg_receive+0xb4>
    4633:	68 8d 01 00 00       	push   $0x18d
    4638:	68 80 b0 00 00       	push   $0xb080
    463d:	68 80 b0 00 00       	push   $0xb080
    4642:	68 12 b2 00 00       	push   $0xb212
    4647:	e8 67 24 00 00       	call   6ab3 <assertion_failure>
    464c:	83 c4 10             	add    $0x10,%esp
    464f:	8b 45 e4             	mov    -0x1c(%ebp),%eax
    4652:	2d e0 b2 04 00       	sub    $0x4b2e0,%eax
    4657:	c1 f8 02             	sar    $0x2,%eax
    465a:	69 c0 6d b1 32 7c    	imul   $0x7c32b16d,%eax,%eax
    4660:	83 ec 08             	sub    $0x8,%esp
    4663:	ff 75 10             	pushl  0x10(%ebp)
    4666:	50                   	push   %eax
    4667:	e8 0a f9 ff ff       	call   3f76 <va2la>
    466c:	83 c4 10             	add    $0x10,%esp
    466f:	89 c2                	mov    %eax,%edx
    4671:	83 ec 04             	sub    $0x4,%esp
    4674:	6a 30                	push   $0x30
    4676:	8d 45 b4             	lea    -0x4c(%ebp),%eax
    4679:	50                   	push   %eax
    467a:	52                   	push   %edx
    467b:	e8 60 22 00 00       	call   68e0 <memcpy>
    4680:	83 c4 10             	add    $0x10,%esp
    4683:	8b 45 e4             	mov    -0x1c(%ebp),%eax
    4686:	c7 80 88 00 00 00 00 	movl   $0x0,0x88(%eax)
    468d:	00 00 00 
    4690:	8b 45 e4             	mov    -0x1c(%ebp),%eax
    4693:	8b 40 78             	mov    0x78(%eax),%eax
    4696:	85 c0                	test   %eax,%eax
    4698:	74 1c                	je     46b6 <msg_receive+0x11b>
    469a:	68 94 01 00 00       	push   $0x194
    469f:	68 80 b0 00 00       	push   $0xb080
    46a4:	68 80 b0 00 00       	push   $0xb080
    46a9:	68 44 b3 00 00       	push   $0xb344
    46ae:	e8 00 24 00 00       	call   6ab3 <assertion_failure>
    46b3:	83 c4 10             	add    $0x10,%esp
    46b6:	8b 45 e4             	mov    -0x1c(%ebp),%eax
    46b9:	8b 40 7c             	mov    0x7c(%eax),%eax
    46bc:	85 c0                	test   %eax,%eax
    46be:	74 1c                	je     46dc <msg_receive+0x141>
    46c0:	68 95 01 00 00       	push   $0x195
    46c5:	68 80 b0 00 00       	push   $0xb080
    46ca:	68 80 b0 00 00       	push   $0xb080
    46cf:	68 63 b3 00 00       	push   $0xb363
    46d4:	e8 da 23 00 00       	call   6ab3 <assertion_failure>
    46d9:	83 c4 10             	add    $0x10,%esp
    46dc:	8b 45 e4             	mov    -0x1c(%ebp),%eax
    46df:	8b 80 84 00 00 00    	mov    0x84(%eax),%eax
    46e5:	83 f8 1b             	cmp    $0x1b,%eax
    46e8:	74 1c                	je     4706 <msg_receive+0x16b>
    46ea:	68 96 01 00 00       	push   $0x196
    46ef:	68 80 b0 00 00       	push   $0xb080
    46f4:	68 80 b0 00 00       	push   $0xb080
    46f9:	68 80 b3 00 00       	push   $0xb380
    46fe:	e8 b0 23 00 00       	call   6ab3 <assertion_failure>
    4703:	83 c4 10             	add    $0x10,%esp
    4706:	8b 45 e4             	mov    -0x1c(%ebp),%eax
    4709:	8b 80 88 00 00 00    	mov    0x88(%eax),%eax
    470f:	85 c0                	test   %eax,%eax
    4711:	74 1c                	je     472f <msg_receive+0x194>
    4713:	68 97 01 00 00       	push   $0x197
    4718:	68 80 b0 00 00       	push   $0xb080
    471d:	68 80 b0 00 00       	push   $0xb080
    4722:	68 a8 b3 00 00       	push   $0xb3a8
    4727:	e8 87 23 00 00       	call   6ab3 <assertion_failure>
    472c:	83 c4 10             	add    $0x10,%esp
    472f:	b8 00 00 00 00       	mov    $0x0,%eax
    4734:	e9 8f 06 00 00       	jmp    4dc8 <msg_receive+0x82d>
    4739:	83 7d 0c 11          	cmpl   $0x11,0xc(%ebp)
    473d:	0f 85 a8 01 00 00    	jne    48eb <msg_receive+0x350>
    4743:	8b 45 e4             	mov    -0x1c(%ebp),%eax
    4746:	8b 80 8c 00 00 00    	mov    0x8c(%eax),%eax
    474c:	85 c0                	test   %eax,%eax
    474e:	0f 84 fc 03 00 00    	je     4b50 <msg_receive+0x5b5>
    4754:	8b 45 e4             	mov    -0x1c(%ebp),%eax
    4757:	8b 80 8c 00 00 00    	mov    0x8c(%eax),%eax
    475d:	89 45 f4             	mov    %eax,-0xc(%ebp)
    4760:	c7 45 ec 01 00 00 00 	movl   $0x1,-0x14(%ebp)
    4767:	8b 45 e4             	mov    -0x1c(%ebp),%eax
    476a:	8b 40 78             	mov    0x78(%eax),%eax
    476d:	85 c0                	test   %eax,%eax
    476f:	74 1c                	je     478d <msg_receive+0x1f2>
    4771:	68 a7 01 00 00       	push   $0x1a7
    4776:	68 80 b0 00 00       	push   $0xb080
    477b:	68 80 b0 00 00       	push   $0xb080
    4780:	68 44 b3 00 00       	push   $0xb344
    4785:	e8 29 23 00 00       	call   6ab3 <assertion_failure>
    478a:	83 c4 10             	add    $0x10,%esp
    478d:	8b 45 e4             	mov    -0x1c(%ebp),%eax
    4790:	8b 40 7c             	mov    0x7c(%eax),%eax
    4793:	85 c0                	test   %eax,%eax
    4795:	74 1c                	je     47b3 <msg_receive+0x218>
    4797:	68 a8 01 00 00       	push   $0x1a8
    479c:	68 80 b0 00 00       	push   $0xb080
    47a1:	68 80 b0 00 00       	push   $0xb080
    47a6:	68 63 b3 00 00       	push   $0xb363
    47ab:	e8 03 23 00 00       	call   6ab3 <assertion_failure>
    47b0:	83 c4 10             	add    $0x10,%esp
    47b3:	8b 45 e4             	mov    -0x1c(%ebp),%eax
    47b6:	8b 80 80 00 00 00    	mov    0x80(%eax),%eax
    47bc:	83 f8 1b             	cmp    $0x1b,%eax
    47bf:	74 1c                	je     47dd <msg_receive+0x242>
    47c1:	68 a9 01 00 00       	push   $0x1a9
    47c6:	68 80 b0 00 00       	push   $0xb080
    47cb:	68 80 b0 00 00       	push   $0xb080
    47d0:	68 cc b3 00 00       	push   $0xb3cc
    47d5:	e8 d9 22 00 00       	call   6ab3 <assertion_failure>
    47da:	83 c4 10             	add    $0x10,%esp
    47dd:	8b 45 e4             	mov    -0x1c(%ebp),%eax
    47e0:	8b 80 84 00 00 00    	mov    0x84(%eax),%eax
    47e6:	83 f8 1b             	cmp    $0x1b,%eax
    47e9:	74 1c                	je     4807 <msg_receive+0x26c>
    47eb:	68 aa 01 00 00       	push   $0x1aa
    47f0:	68 80 b0 00 00       	push   $0xb080
    47f5:	68 80 b0 00 00       	push   $0xb080
    47fa:	68 80 b3 00 00       	push   $0xb380
    47ff:	e8 af 22 00 00       	call   6ab3 <assertion_failure>
    4804:	83 c4 10             	add    $0x10,%esp
    4807:	8b 45 e4             	mov    -0x1c(%ebp),%eax
    480a:	8b 80 8c 00 00 00    	mov    0x8c(%eax),%eax
    4810:	85 c0                	test   %eax,%eax
    4812:	75 1c                	jne    4830 <msg_receive+0x295>
    4814:	68 ab 01 00 00       	push   $0x1ab
    4819:	68 80 b0 00 00       	push   $0xb080
    481e:	68 80 b0 00 00       	push   $0xb080
    4823:	68 f4 b3 00 00       	push   $0xb3f4
    4828:	e8 86 22 00 00       	call   6ab3 <assertion_failure>
    482d:	83 c4 10             	add    $0x10,%esp
    4830:	8b 45 f4             	mov    -0xc(%ebp),%eax
    4833:	8b 40 78             	mov    0x78(%eax),%eax
    4836:	83 f8 02             	cmp    $0x2,%eax
    4839:	74 1c                	je     4857 <msg_receive+0x2bc>
    483b:	68 ac 01 00 00       	push   $0x1ac
    4840:	68 80 b0 00 00       	push   $0xb080
    4845:	68 80 b0 00 00       	push   $0xb080
    484a:	68 15 b4 00 00       	push   $0xb415
    484f:	e8 5f 22 00 00       	call   6ab3 <assertion_failure>
    4854:	83 c4 10             	add    $0x10,%esp
    4857:	8b 45 f4             	mov    -0xc(%ebp),%eax
    485a:	8b 40 7c             	mov    0x7c(%eax),%eax
    485d:	85 c0                	test   %eax,%eax
    485f:	75 1c                	jne    487d <msg_receive+0x2e2>
    4861:	68 ad 01 00 00       	push   $0x1ad
    4866:	68 80 b0 00 00       	push   $0xb080
    486b:	68 80 b0 00 00       	push   $0xb080
    4870:	68 30 b4 00 00       	push   $0xb430
    4875:	e8 39 22 00 00       	call   6ab3 <assertion_failure>
    487a:	83 c4 10             	add    $0x10,%esp
    487d:	8b 45 f4             	mov    -0xc(%ebp),%eax
    4880:	8b 80 80 00 00 00    	mov    0x80(%eax),%eax
    4886:	83 f8 1b             	cmp    $0x1b,%eax
    4889:	74 1c                	je     48a7 <msg_receive+0x30c>
    488b:	68 ae 01 00 00       	push   $0x1ae
    4890:	68 80 b0 00 00       	push   $0xb080
    4895:	68 80 b0 00 00       	push   $0xb080
    489a:	68 43 b4 00 00       	push   $0xb443
    489f:	e8 0f 22 00 00       	call   6ab3 <assertion_failure>
    48a4:	83 c4 10             	add    $0x10,%esp
    48a7:	8b 45 f4             	mov    -0xc(%ebp),%eax
    48aa:	8b 80 84 00 00 00    	mov    0x84(%eax),%eax
    48b0:	8b 55 e4             	mov    -0x1c(%ebp),%edx
    48b3:	81 ea e0 b2 04 00    	sub    $0x4b2e0,%edx
    48b9:	c1 fa 02             	sar    $0x2,%edx
    48bc:	69 d2 6d b1 32 7c    	imul   $0x7c32b16d,%edx,%edx
    48c2:	39 d0                	cmp    %edx,%eax
    48c4:	0f 84 86 02 00 00    	je     4b50 <msg_receive+0x5b5>
    48ca:	68 af 01 00 00       	push   $0x1af
    48cf:	68 80 b0 00 00       	push   $0xb080
    48d4:	68 80 b0 00 00       	push   $0xb080
    48d9:	68 64 b4 00 00       	push   $0xb464
    48de:	e8 d0 21 00 00       	call   6ab3 <assertion_failure>
    48e3:	83 c4 10             	add    $0x10,%esp
    48e6:	e9 65 02 00 00       	jmp    4b50 <msg_receive+0x5b5>
    48eb:	83 7d 0c 00          	cmpl   $0x0,0xc(%ebp)
    48ef:	0f 88 5b 02 00 00    	js     4b50 <msg_receive+0x5b5>
    48f5:	83 7d 0c 06          	cmpl   $0x6,0xc(%ebp)
    48f9:	0f 8f 51 02 00 00    	jg     4b50 <msg_receive+0x5b5>
    48ff:	8b 45 0c             	mov    0xc(%ebp),%eax
    4902:	69 c0 94 01 00 00    	imul   $0x194,%eax,%eax
    4908:	05 e0 b2 04 00       	add    $0x4b2e0,%eax
    490d:	89 45 f4             	mov    %eax,-0xc(%ebp)
    4910:	8b 45 f4             	mov    -0xc(%ebp),%eax
    4913:	8b 40 78             	mov    0x78(%eax),%eax
    4916:	83 e0 02             	and    $0x2,%eax
    4919:	85 c0                	test   %eax,%eax
    491b:	0f 84 2f 02 00 00    	je     4b50 <msg_receive+0x5b5>
    4921:	8b 45 f4             	mov    -0xc(%ebp),%eax
    4924:	8b 80 84 00 00 00    	mov    0x84(%eax),%eax
    492a:	8b 55 e4             	mov    -0x1c(%ebp),%edx
    492d:	81 ea e0 b2 04 00    	sub    $0x4b2e0,%edx
    4933:	c1 fa 02             	sar    $0x2,%edx
    4936:	69 d2 6d b1 32 7c    	imul   $0x7c32b16d,%edx,%edx
    493c:	39 d0                	cmp    %edx,%eax
    493e:	0f 85 0c 02 00 00    	jne    4b50 <msg_receive+0x5b5>
    4944:	c7 45 ec 01 00 00 00 	movl   $0x1,-0x14(%ebp)
    494b:	8b 45 e4             	mov    -0x1c(%ebp),%eax
    494e:	8b 80 8c 00 00 00    	mov    0x8c(%eax),%eax
    4954:	89 45 e8             	mov    %eax,-0x18(%ebp)
    4957:	83 7d e8 00          	cmpl   $0x0,-0x18(%ebp)
    495b:	75 6f                	jne    49cc <msg_receive+0x431>
    495d:	68 c1 01 00 00       	push   $0x1c1
    4962:	68 80 b0 00 00       	push   $0xb080
    4967:	68 80 b0 00 00       	push   $0xb080
    496c:	68 93 b4 00 00       	push   $0xb493
    4971:	e8 3d 21 00 00       	call   6ab3 <assertion_failure>
    4976:	83 c4 10             	add    $0x10,%esp
    4979:	eb 51                	jmp    49cc <msg_receive+0x431>
    497b:	8b 45 f4             	mov    -0xc(%ebp),%eax
    497e:	8b 40 78             	mov    0x78(%eax),%eax
    4981:	83 e0 02             	and    $0x2,%eax
    4984:	85 c0                	test   %eax,%eax
    4986:	75 1c                	jne    49a4 <msg_receive+0x409>
    4988:	68 c6 01 00 00       	push   $0x1c6
    498d:	68 80 b0 00 00       	push   $0xb080
    4992:	68 80 b0 00 00       	push   $0xb080
    4997:	68 95 b4 00 00       	push   $0xb495
    499c:	e8 12 21 00 00       	call   6ab3 <assertion_failure>
    49a1:	83 c4 10             	add    $0x10,%esp
    49a4:	8b 45 e8             	mov    -0x18(%ebp),%eax
    49a7:	2d e0 b2 04 00       	sub    $0x4b2e0,%eax
    49ac:	c1 f8 02             	sar    $0x2,%eax
    49af:	69 c0 6d b1 32 7c    	imul   $0x7c32b16d,%eax,%eax
    49b5:	39 45 0c             	cmp    %eax,0xc(%ebp)
    49b8:	74 1a                	je     49d4 <msg_receive+0x439>
    49ba:	8b 45 e8             	mov    -0x18(%ebp),%eax
    49bd:	89 45 f0             	mov    %eax,-0x10(%ebp)
    49c0:	8b 45 e8             	mov    -0x18(%ebp),%eax
    49c3:	8b 80 90 00 00 00    	mov    0x90(%eax),%eax
    49c9:	89 45 e8             	mov    %eax,-0x18(%ebp)
    49cc:	83 7d e8 00          	cmpl   $0x0,-0x18(%ebp)
    49d0:	75 a9                	jne    497b <msg_receive+0x3e0>
    49d2:	eb 01                	jmp    49d5 <msg_receive+0x43a>
    49d4:	90                   	nop
    49d5:	8b 45 e4             	mov    -0x1c(%ebp),%eax
    49d8:	8b 40 78             	mov    0x78(%eax),%eax
    49db:	85 c0                	test   %eax,%eax
    49dd:	74 1c                	je     49fb <msg_receive+0x460>
    49df:	68 cf 01 00 00       	push   $0x1cf
    49e4:	68 80 b0 00 00       	push   $0xb080
    49e9:	68 80 b0 00 00       	push   $0xb080
    49ee:	68 44 b3 00 00       	push   $0xb344
    49f3:	e8 bb 20 00 00       	call   6ab3 <assertion_failure>
    49f8:	83 c4 10             	add    $0x10,%esp
    49fb:	8b 45 e4             	mov    -0x1c(%ebp),%eax
    49fe:	8b 40 7c             	mov    0x7c(%eax),%eax
    4a01:	85 c0                	test   %eax,%eax
    4a03:	74 1c                	je     4a21 <msg_receive+0x486>
    4a05:	68 d0 01 00 00       	push   $0x1d0
    4a0a:	68 80 b0 00 00       	push   $0xb080
    4a0f:	68 80 b0 00 00       	push   $0xb080
    4a14:	68 63 b3 00 00       	push   $0xb363
    4a19:	e8 95 20 00 00       	call   6ab3 <assertion_failure>
    4a1e:	83 c4 10             	add    $0x10,%esp
    4a21:	8b 45 e4             	mov    -0x1c(%ebp),%eax
    4a24:	8b 80 80 00 00 00    	mov    0x80(%eax),%eax
    4a2a:	83 f8 1b             	cmp    $0x1b,%eax
    4a2d:	74 1c                	je     4a4b <msg_receive+0x4b0>
    4a2f:	68 d1 01 00 00       	push   $0x1d1
    4a34:	68 80 b0 00 00       	push   $0xb080
    4a39:	68 80 b0 00 00       	push   $0xb080
    4a3e:	68 cc b3 00 00       	push   $0xb3cc
    4a43:	e8 6b 20 00 00       	call   6ab3 <assertion_failure>
    4a48:	83 c4 10             	add    $0x10,%esp
    4a4b:	8b 45 e4             	mov    -0x1c(%ebp),%eax
    4a4e:	8b 80 84 00 00 00    	mov    0x84(%eax),%eax
    4a54:	83 f8 1b             	cmp    $0x1b,%eax
    4a57:	74 1c                	je     4a75 <msg_receive+0x4da>
    4a59:	68 d2 01 00 00       	push   $0x1d2
    4a5e:	68 80 b0 00 00       	push   $0xb080
    4a63:	68 80 b0 00 00       	push   $0xb080
    4a68:	68 80 b3 00 00       	push   $0xb380
    4a6d:	e8 41 20 00 00       	call   6ab3 <assertion_failure>
    4a72:	83 c4 10             	add    $0x10,%esp
    4a75:	8b 45 e4             	mov    -0x1c(%ebp),%eax
    4a78:	8b 80 8c 00 00 00    	mov    0x8c(%eax),%eax
    4a7e:	85 c0                	test   %eax,%eax
    4a80:	75 1c                	jne    4a9e <msg_receive+0x503>
    4a82:	68 d3 01 00 00       	push   $0x1d3
    4a87:	68 80 b0 00 00       	push   $0xb080
    4a8c:	68 80 b0 00 00       	push   $0xb080
    4a91:	68 f4 b3 00 00       	push   $0xb3f4
    4a96:	e8 18 20 00 00       	call   6ab3 <assertion_failure>
    4a9b:	83 c4 10             	add    $0x10,%esp
    4a9e:	8b 45 f4             	mov    -0xc(%ebp),%eax
    4aa1:	8b 40 78             	mov    0x78(%eax),%eax
    4aa4:	83 f8 02             	cmp    $0x2,%eax
    4aa7:	74 1c                	je     4ac5 <msg_receive+0x52a>
    4aa9:	68 d4 01 00 00       	push   $0x1d4
    4aae:	68 80 b0 00 00       	push   $0xb080
    4ab3:	68 80 b0 00 00       	push   $0xb080
    4ab8:	68 15 b4 00 00       	push   $0xb415
    4abd:	e8 f1 1f 00 00       	call   6ab3 <assertion_failure>
    4ac2:	83 c4 10             	add    $0x10,%esp
    4ac5:	8b 45 f4             	mov    -0xc(%ebp),%eax
    4ac8:	8b 40 7c             	mov    0x7c(%eax),%eax
    4acb:	85 c0                	test   %eax,%eax
    4acd:	75 1c                	jne    4aeb <msg_receive+0x550>
    4acf:	68 d5 01 00 00       	push   $0x1d5
    4ad4:	68 80 b0 00 00       	push   $0xb080
    4ad9:	68 80 b0 00 00       	push   $0xb080
    4ade:	68 30 b4 00 00       	push   $0xb430
    4ae3:	e8 cb 1f 00 00       	call   6ab3 <assertion_failure>
    4ae8:	83 c4 10             	add    $0x10,%esp
    4aeb:	8b 45 f4             	mov    -0xc(%ebp),%eax
    4aee:	8b 80 80 00 00 00    	mov    0x80(%eax),%eax
    4af4:	83 f8 1b             	cmp    $0x1b,%eax
    4af7:	74 1c                	je     4b15 <msg_receive+0x57a>
    4af9:	68 d6 01 00 00       	push   $0x1d6
    4afe:	68 80 b0 00 00       	push   $0xb080
    4b03:	68 80 b0 00 00       	push   $0xb080
    4b08:	68 43 b4 00 00       	push   $0xb443
    4b0d:	e8 a1 1f 00 00       	call   6ab3 <assertion_failure>
    4b12:	83 c4 10             	add    $0x10,%esp
    4b15:	8b 45 f4             	mov    -0xc(%ebp),%eax
    4b18:	8b 80 84 00 00 00    	mov    0x84(%eax),%eax
    4b1e:	8b 55 e4             	mov    -0x1c(%ebp),%edx
    4b21:	81 ea e0 b2 04 00    	sub    $0x4b2e0,%edx
    4b27:	c1 fa 02             	sar    $0x2,%edx
    4b2a:	69 d2 6d b1 32 7c    	imul   $0x7c32b16d,%edx,%edx
    4b30:	39 d0                	cmp    %edx,%eax
    4b32:	74 1c                	je     4b50 <msg_receive+0x5b5>
    4b34:	68 d7 01 00 00       	push   $0x1d7
    4b39:	68 80 b0 00 00       	push   $0xb080
    4b3e:	68 80 b0 00 00       	push   $0xb080
    4b43:	68 64 b4 00 00       	push   $0xb464
    4b48:	e8 66 1f 00 00       	call   6ab3 <assertion_failure>
    4b4d:	83 c4 10             	add    $0x10,%esp
    4b50:	83 7d ec 00          	cmpl   $0x0,-0x14(%ebp)
    4b54:	0f 84 6b 01 00 00    	je     4cc5 <msg_receive+0x72a>
    4b5a:	8b 45 e4             	mov    -0x1c(%ebp),%eax
    4b5d:	8b 80 8c 00 00 00    	mov    0x8c(%eax),%eax
    4b63:	39 45 f4             	cmp    %eax,-0xc(%ebp)
    4b66:	75 43                	jne    4bab <msg_receive+0x610>
    4b68:	83 7d f0 00          	cmpl   $0x0,-0x10(%ebp)
    4b6c:	74 1c                	je     4b8a <msg_receive+0x5ef>
    4b6e:	68 e2 01 00 00       	push   $0x1e2
    4b73:	68 80 b0 00 00       	push   $0xb080
    4b78:	68 80 b0 00 00       	push   $0xb080
    4b7d:	68 af b4 00 00       	push   $0xb4af
    4b82:	e8 2c 1f 00 00       	call   6ab3 <assertion_failure>
    4b87:	83 c4 10             	add    $0x10,%esp
    4b8a:	8b 45 f4             	mov    -0xc(%ebp),%eax
    4b8d:	8b 90 90 00 00 00    	mov    0x90(%eax),%edx
    4b93:	8b 45 e4             	mov    -0x1c(%ebp),%eax
    4b96:	89 90 8c 00 00 00    	mov    %edx,0x8c(%eax)
    4b9c:	8b 45 f4             	mov    -0xc(%ebp),%eax
    4b9f:	c7 80 90 00 00 00 00 	movl   $0x0,0x90(%eax)
    4ba6:	00 00 00 
    4ba9:	eb 41                	jmp    4bec <msg_receive+0x651>
    4bab:	83 7d f0 00          	cmpl   $0x0,-0x10(%ebp)
    4baf:	75 1c                	jne    4bcd <msg_receive+0x632>
    4bb1:	68 e7 01 00 00       	push   $0x1e7
    4bb6:	68 80 b0 00 00       	push   $0xb080
    4bbb:	68 80 b0 00 00       	push   $0xb080
    4bc0:	68 b9 b4 00 00       	push   $0xb4b9
    4bc5:	e8 e9 1e 00 00       	call   6ab3 <assertion_failure>
    4bca:	83 c4 10             	add    $0x10,%esp
    4bcd:	8b 45 f4             	mov    -0xc(%ebp),%eax
    4bd0:	8b 90 90 00 00 00    	mov    0x90(%eax),%edx
    4bd6:	8b 45 f0             	mov    -0x10(%ebp),%eax
    4bd9:	89 90 90 00 00 00    	mov    %edx,0x90(%eax)
    4bdf:	8b 45 f4             	mov    -0xc(%ebp),%eax
    4be2:	c7 80 90 00 00 00 00 	movl   $0x0,0x90(%eax)
    4be9:	00 00 00 
    4bec:	83 7d 10 00          	cmpl   $0x0,0x10(%ebp)
    4bf0:	75 1c                	jne    4c0e <msg_receive+0x673>
    4bf2:	68 ec 01 00 00       	push   $0x1ec
    4bf7:	68 80 b0 00 00       	push   $0xb080
    4bfc:	68 80 b0 00 00       	push   $0xb080
    4c01:	68 12 b2 00 00       	push   $0xb212
    4c06:	e8 a8 1e 00 00       	call   6ab3 <assertion_failure>
    4c0b:	83 c4 10             	add    $0x10,%esp
    4c0e:	8b 45 f4             	mov    -0xc(%ebp),%eax
    4c11:	8b 40 7c             	mov    0x7c(%eax),%eax
    4c14:	85 c0                	test   %eax,%eax
    4c16:	75 1c                	jne    4c34 <msg_receive+0x699>
    4c18:	68 ed 01 00 00       	push   $0x1ed
    4c1d:	68 80 b0 00 00       	push   $0xb080
    4c22:	68 80 b0 00 00       	push   $0xb080
    4c27:	68 be b4 00 00       	push   $0xb4be
    4c2c:	e8 82 1e 00 00       	call   6ab3 <assertion_failure>
    4c31:	83 c4 10             	add    $0x10,%esp
    4c34:	8b 45 f4             	mov    -0xc(%ebp),%eax
    4c37:	8b 40 7c             	mov    0x7c(%eax),%eax
    4c3a:	8b 55 f4             	mov    -0xc(%ebp),%edx
    4c3d:	81 ea e0 b2 04 00    	sub    $0x4b2e0,%edx
    4c43:	c1 fa 02             	sar    $0x2,%edx
    4c46:	69 d2 6d b1 32 7c    	imul   $0x7c32b16d,%edx,%edx
    4c4c:	83 ec 08             	sub    $0x8,%esp
    4c4f:	50                   	push   %eax
    4c50:	52                   	push   %edx
    4c51:	e8 20 f3 ff ff       	call   3f76 <va2la>
    4c56:	83 c4 10             	add    $0x10,%esp
    4c59:	89 c3                	mov    %eax,%ebx
    4c5b:	8b 45 e4             	mov    -0x1c(%ebp),%eax
    4c5e:	2d e0 b2 04 00       	sub    $0x4b2e0,%eax
    4c63:	c1 f8 02             	sar    $0x2,%eax
    4c66:	69 c0 6d b1 32 7c    	imul   $0x7c32b16d,%eax,%eax
    4c6c:	83 ec 08             	sub    $0x8,%esp
    4c6f:	ff 75 10             	pushl  0x10(%ebp)
    4c72:	50                   	push   %eax
    4c73:	e8 fe f2 ff ff       	call   3f76 <va2la>
    4c78:	83 c4 10             	add    $0x10,%esp
    4c7b:	83 ec 04             	sub    $0x4,%esp
    4c7e:	6a 30                	push   $0x30
    4c80:	53                   	push   %ebx
    4c81:	50                   	push   %eax
    4c82:	e8 59 1c 00 00       	call   68e0 <memcpy>
    4c87:	83 c4 10             	add    $0x10,%esp
    4c8a:	8b 45 f4             	mov    -0xc(%ebp),%eax
    4c8d:	c7 40 7c 00 00 00 00 	movl   $0x0,0x7c(%eax)
    4c94:	8b 45 f4             	mov    -0xc(%ebp),%eax
    4c97:	c7 80 84 00 00 00 1b 	movl   $0x1b,0x84(%eax)
    4c9e:	00 00 00 
    4ca1:	8b 45 f4             	mov    -0xc(%ebp),%eax
    4ca4:	8b 40 78             	mov    0x78(%eax),%eax
    4ca7:	83 e0 fd             	and    $0xfffffffd,%eax
    4caa:	89 c2                	mov    %eax,%edx
    4cac:	8b 45 f4             	mov    -0xc(%ebp),%eax
    4caf:	89 50 78             	mov    %edx,0x78(%eax)
    4cb2:	83 ec 0c             	sub    $0xc,%esp
    4cb5:	ff 75 f4             	pushl  -0xc(%ebp)
    4cb8:	e8 69 f3 ff ff       	call   4026 <unblock>
    4cbd:	83 c4 10             	add    $0x10,%esp
    4cc0:	e9 fe 00 00 00       	jmp    4dc3 <msg_receive+0x828>
    4cc5:	8b 45 e4             	mov    -0x1c(%ebp),%eax
    4cc8:	8b 40 78             	mov    0x78(%eax),%eax
    4ccb:	83 c8 04             	or     $0x4,%eax
    4cce:	89 c2                	mov    %eax,%edx
    4cd0:	8b 45 e4             	mov    -0x1c(%ebp),%eax
    4cd3:	89 50 78             	mov    %edx,0x78(%eax)
    4cd6:	8b 45 e4             	mov    -0x1c(%ebp),%eax
    4cd9:	8b 55 10             	mov    0x10(%ebp),%edx
    4cdc:	89 50 7c             	mov    %edx,0x7c(%eax)
    4cdf:	8b 45 e4             	mov    -0x1c(%ebp),%eax
    4ce2:	8b 55 0c             	mov    0xc(%ebp),%edx
    4ce5:	89 90 80 00 00 00    	mov    %edx,0x80(%eax)
    4ceb:	83 ec 0c             	sub    $0xc,%esp
    4cee:	ff 75 e4             	pushl  -0x1c(%ebp)
    4cf1:	e8 fc f2 ff ff       	call   3ff2 <block>
    4cf6:	83 c4 10             	add    $0x10,%esp
    4cf9:	8b 45 e4             	mov    -0x1c(%ebp),%eax
    4cfc:	8b 40 78             	mov    0x78(%eax),%eax
    4cff:	83 f8 04             	cmp    $0x4,%eax
    4d02:	74 1c                	je     4d20 <msg_receive+0x785>
    4d04:	68 03 02 00 00       	push   $0x203
    4d09:	68 80 b0 00 00       	push   $0xb080
    4d0e:	68 80 b0 00 00       	push   $0xb080
    4d13:	68 cc b4 00 00       	push   $0xb4cc
    4d18:	e8 96 1d 00 00       	call   6ab3 <assertion_failure>
    4d1d:	83 c4 10             	add    $0x10,%esp
    4d20:	8b 45 e4             	mov    -0x1c(%ebp),%eax
    4d23:	8b 40 7c             	mov    0x7c(%eax),%eax
    4d26:	85 c0                	test   %eax,%eax
    4d28:	75 1c                	jne    4d46 <msg_receive+0x7ab>
    4d2a:	68 04 02 00 00       	push   $0x204
    4d2f:	68 80 b0 00 00       	push   $0xb080
    4d34:	68 80 b0 00 00       	push   $0xb080
    4d39:	68 f3 b4 00 00       	push   $0xb4f3
    4d3e:	e8 70 1d 00 00       	call   6ab3 <assertion_failure>
    4d43:	83 c4 10             	add    $0x10,%esp
    4d46:	8b 45 e4             	mov    -0x1c(%ebp),%eax
    4d49:	8b 80 80 00 00 00    	mov    0x80(%eax),%eax
    4d4f:	83 f8 1b             	cmp    $0x1b,%eax
    4d52:	75 1c                	jne    4d70 <msg_receive+0x7d5>
    4d54:	68 05 02 00 00       	push   $0x205
    4d59:	68 80 b0 00 00       	push   $0xb080
    4d5e:	68 80 b0 00 00       	push   $0xb080
    4d63:	68 10 b5 00 00       	push   $0xb510
    4d68:	e8 46 1d 00 00       	call   6ab3 <assertion_failure>
    4d6d:	83 c4 10             	add    $0x10,%esp
    4d70:	8b 45 e4             	mov    -0x1c(%ebp),%eax
    4d73:	8b 80 84 00 00 00    	mov    0x84(%eax),%eax
    4d79:	83 f8 1b             	cmp    $0x1b,%eax
    4d7c:	74 1c                	je     4d9a <msg_receive+0x7ff>
    4d7e:	68 06 02 00 00       	push   $0x206
    4d83:	68 80 b0 00 00       	push   $0xb080
    4d88:	68 80 b0 00 00       	push   $0xb080
    4d8d:	68 80 b3 00 00       	push   $0xb380
    4d92:	e8 1c 1d 00 00       	call   6ab3 <assertion_failure>
    4d97:	83 c4 10             	add    $0x10,%esp
    4d9a:	8b 45 e4             	mov    -0x1c(%ebp),%eax
    4d9d:	8b 80 88 00 00 00    	mov    0x88(%eax),%eax
